(lp0
(S'alt.atheism'
p1
I1000
tp2
a(S'comp.graphics'
p3
I1000
tp4
a(S'comp.os.ms-windows.misc'
p5
I1000
tp6
a(S'comp.sys.ibm.pc.hardware'
p7
I1000
tp8
a(S'comp.sys.mac.hardware'
p9
I1000
tp10
a(S'comp.windows.x'
p11
I1000
tp12
a(S'misc.forsale'
p13
I1000
tp14
a(S'rec.autos'
p15
I1000
tp16
a(S'rec.motorcycles'
p17
I1000
tp18
a(S'rec.sport.baseball'
p19
I1000
tp20
a(S'rec.sport.hockey'
p21
I1000
tp22
a(S'sci.crypt'
p23
I1000
tp24
a(S'sci.electronics'
p25
I1000
tp26
a(S'sci.med'
p27
I1000
tp28
a(S'sci.space'
p29
I1000
tp30
a(S'soc.religion.christian'
p31
I997
tp32
a(S'talk.politics.guns'
p33
I1000
tp34
a(S'talk.politics.mideast'
p35
I1000
tp36
a(S'talk.politics.misc'
p37
I1000
tp38
a(S'talk.religion.misc'
p39
I1000
tp40
a(S'sum'
p41
I19997
tp42
a.