(lp0
(lp1
(S'god'
p2
F0.0068850697461545094
tp3
a(S'people'
p4
F0.006215135214014234
tp5
a(S'think'
p6
F0.0049017982104125075
tp7
a(S'know'
p8
F0.003966543071484005
tp9
a(S'morality'
p10
F0.003462433918586372
tp11
a(S''
p12
F0.0034425348730772547
tp13
a(S'believe'
p14
F0.00325017743315579
tp15
a(S'see'
p16
F0.0029914898415372678
tp17
a(S'atheists'
p18
F0.0029317927050099162
tp19
a(S'time'
p20
F0.002852196522973448
tp21
a(S'way'
p22
F0.002852196522973448
tp23
a(S'moral'
p24
F0.0027991324016158024
tp25
a(S'religion'
p26
F0.0027726003409369797
tp27
a(S'good'
p28
F0.002706270189239923
tp29
a(S'objective'
p30
F0.002699637174070217
tp31
a(S'christian'
p32
F0.002659839083051983
tp33
a(S'being'
p34
F0.0026532060678822775
tp35
a(S'those'
p36
F0.002553710840336692
tp37
a(S'well'
p38
F0.002547077825166986
tp39
a(S'something'
p40
F0.0024674816431305177
tp41
a(S'make'
p42
F0.002460848627960812
tp43
a(S'evidence'
p44
F0.0024542156127911065
tp45
a(S'point'
p46
F0.002261858172869641
tp47
a(S'world'
p48
F0.0022552251576999356
tp49
a(S'science'
p50
F0.0022154270666817017
tp51
a(S'atheism'
p52
F0.002182261990833173
tp53
a(S'fact'
p54
F0.0021689959604937617
tp55
a(S'same'
p56
F0.002162362945324056
tp57
a(S'system'
p58
F0.0021358308846452334
tp59
a(S'here'
p60
F0.0021291978694755274
tp61
a(S'jesus'
p62
F0.002122564854305822
tp63
a(S'true'
p64
F0.0020827667632875874
tp65
a(S'things'
p66
F0.002036335657099648
tp67
a(S'right'
p68
F0.002029702641929942
tp69
a(S'argument'
p70
F0.001943473444723768
tp71
a(S'years'
p72
F0.0019368404295540625
tp73
a(S'read'
p74
F0.001903675353705534
tp75
a(S'mean'
p76
F0.001883776308196417
tp77
a(S'still'
p78
F0.0018439782171781826
tp79
a(S'really'
p80
F0.001837345202008477
tp81
a(S'better'
p82
F0.0018041801261599484
tp83
a(S'bible'
p84
F0.0018041801261599484
tp85
a(S'claim'
p86
F0.0017842810806508315
tp87
a(S'book'
p88
F0.0017378499744628915
tp89
a(S'example'
p90
F0.001731216959293186
tp91
a(S'islam'
p92
F0.0017113179137840688
tp93
a(S'question'
p94
F0.0017046848986143632
tp95
a(S'belief'
p96
F0.001664886807596129
tp97
a(S'reason'
p98
F0.001664886807596129
tp99
a(S'take'
p100
F0.0016516207772567177
tp101
a(S'thing'
p102
F0.0016383547469173063
tp103
a(S'someone'
p104
F0.0015919236407293663
tp105
a(S'over'
p106
F0.001578657610389955
tp107
a(S'different'
p108
F0.0015720245952202492
tp109
a(S'faith'
p110
F0.0015653915800505436
tp111
a(S'first'
p112
F0.0015587585648808378
tp113
a(S'islamic'
p114
F0.0015587585648808378
tp115
a(S'wrong'
p116
F0.0015521255497111322
tp117
a(S'truth'
p118
F0.0015454925345414264
tp119
a(S'nothing'
p120
F0.0015454925345414264
tp121
a(S'anything'
p122
F0.001532226504202015
tp123
a(S'seems'
p124
F0.001532226504202015
tp125
a(S'value'
p126
F0.0015189604738626036
tp127
a(S'life'
p128
F0.0014990614283534867
tp129
a(S'never'
p130
F0.0014857953980140753
tp131
a(S'atheist'
p132
F0.0014857953980140753
tp133
a(S'agree'
p134
F0.0014791623828443695
tp135
a(S'religious'
p136
F0.001472529367674664
tp137
a(S'saying'
p138
F0.0014592633373352525
tp139
a(S'made'
p140
F0.0014592633373352525
tp141
a(S'course'
p142
F0.0014327312766564298
tp143
a(S'exist'
p144
F0.001426098261486724
tp145
a(S'values'
p146
F0.0014128322311473126
tp147
a(S'again'
p148
F0.0014128322311473126
tp149
a(S'another'
p150
F0.0013531350946199615
tp151
a(S'real'
p152
F0.0013465020794502557
tp153
a(S'find'
p154
F0.0013266030339411387
tp155
a(S'case'
p156
F0.0013133370036017271
tp157
a(S'use'
p158
F0.0013133370036017271
tp159
a(S'go'
p160
F0.0013067039884320215
tp161
a(S'whether'
p162
F0.0013000709732623158
tp163
a(S'before'
p164
F0.0012934379580926102
tp165
a(S'without'
p166
F0.0012801719277531988
tp167
a(S'want'
p168
F0.001273538912583493
tp169
a(S'theory'
p170
F0.001273538912583493
tp171
a(S'new'
p172
F0.0012669058974137874
tp173
a(S'actually'
p174
F0.0012602728822440816
tp175
a(S'means'
p176
F0.0012337408215652588
tp177
a(S'yes'
p178
F0.0012337408215652588
tp179
a(S'anyone'
p180
F0.0012271078063955533
tp181
a(S'used'
p182
F0.0012204747912258475
tp183
a(S'sure'
p184
F0.0012204747912258475
tp185
a(S'existence'
p186
F0.001207208760886436
tp187
a(S'others'
p188
F0.001207208760886436
tp189
a(S'person'
p190
F0.0012005757457167305
tp191
a(S'try'
p192
F0.0012005757457167305
tp193
a(S'universe'
p194
F0.0011939427305470247
tp195
a(S'makes'
p196
F0.0011873097153773191
tp197
a(S'possible'
p198
F0.0011806767002076133
tp199
a(S'seem'
p200
F0.0011806767002076133
tp201
a(S'little'
p202
F0.001167410669868202
tp203
a(S'statement'
p204
F0.0011541446395287906
tp205
a(S'sense'
p206
F0.001147511624359085
tp207
a(S'law'
p208
F0.001147511624359085
tp209
a(S'both'
p210
F0.001147511624359085
tp211
a(S'human'
p212
F0.001147511624359085
tp213
a(S'b'
p214
F0.001147511624359085
tp215
a(S'perhaps'
p216
F0.001147511624359085
tp217
a(S'against'
p218
F0.0011342455940196736
tp219
a(S'above'
p220
F0.0011209795636802622
tp221
a(S'post'
p222
F0.0011209795636802622
tp223
a(S'please'
p224
F0.0011077135333408508
tp225
a(S'word'
p226
F0.001101080518171145
tp227
a(S'come'
p228
F0.001101080518171145
tp229
a(S'therefore'
p230
F0.0010944475030014395
tp231
a(S'etc'
p232
F0.0010745484574923223
tp233
a(S'distribution'
p234
F0.0010745484574923223
tp235
a(S'look'
p236
F0.0010745484574923223
tp237
a(S'quite'
p238
F0.001061282427152911
tp239
a(S'evolution'
p240
F0.001054649411983205
tp241
a(S'accept'
p242
F0.0010480163968134995
tp243
a(S'war'
p244
F0.0010480163968134995
tp245
a(S'part'
p246
F0.0010347503664740881
tp247
a(S'understand'
p248
F0.0010281173513043823
tp249
a(S'need'
p250
F0.0010214843361346768
tp251
a(S'theism'
p252
F0.0010214843361346768
tp253
a(S'given'
p254
F0.0010214843361346768
tp255
a(S'free'
p256
F0.0010082183057952654
tp257
a(S'between'
p258
F0.0009816862451164426
tp259
a(S'beliefs'
p260
F0.0009816862451164426
tp261
a(S'matter'
p262
F0.0009816862451164426
tp263
a(S'long'
p264
F0.0009816862451164426
tp265
a(S'idea'
p266
F0.0009684202147770312
tp267
a(S'bill'
p268
F0.0009684202147770312
tp269
a(S'though'
p270
F0.0009684202147770312
tp271
a(S'rushdie'
p272
F0.0009617871996073255
tp273
a(S'simply'
p274
F0.0009617871996073255
tp275
a(S'bad'
p276
F0.0009551541844376198
tp277
a(S'problem'
p278
F0.0009485211692679142
tp279
a(S'back'
p280
F0.0009418881540982085
tp281
a(S'give'
p282
F0.0009352551389285028
tp283
a(S'man'
p284
F0.0009352551389285028
tp285
a(S'society'
p286
F0.0009286221237587971
tp287
a(S'based'
p288
F0.0009153560934193856
tp289
a(S'thought'
p290
F0.0009153560934193856
tp291
a(S'each'
p292
F0.0009020900630799742
tp293
a(S'death'
p294
F0.0008954570479102685
tp295
a(S'opinion'
p296
F0.0008888240327405628
tp297
a(S'tell'
p298
F0.0008888240327405628
tp299
a(S'answer'
p300
F0.0008755580024011515
tp301
a(S'far'
p302
F0.0008755580024011515
tp303
a(S'definition'
p304
F0.0008755580024011515
tp305
a(S'words'
p306
F0.0008622919720617401
tp307
a(S'view'
p308
F0.0008622919720617401
tp309
a(S'history'
p310
F0.0008556589568920344
tp311
a(S'day'
p312
F0.0008490259417223287
tp313
a(S'doing'
p314
F0.000842392926552623
tp315
a(S'probably'
p316
F0.000842392926552623
tp317
a(S'christianity'
p318
F0.000842392926552623
tp319
a(S'work'
p320
F0.0008357599113829173
tp321
a(S'basis'
p322
F0.0008357599113829173
tp323
a(S'christians'
p324
F0.0008357599113829173
tp325
a(S'always'
p326
F0.0008291268962132116
tp327
a(S'gods'
p328
F0.0008291268962132116
tp329
a(S'claims'
p330
F0.0008291268962132116
tp331
a(S'earth'
p332
F0.0008291268962132116
tp333
a(S'going'
p334
F0.0008224938810435059
tp335
a(S'great'
p336
F0.0008224938810435059
tp337
a(S'enough'
p338
F0.0008224938810435059
tp339
a(S'nature'
p340
F0.0008158608658738002
tp341
a(S'information'
p342
F0.0008158608658738002
tp343
a(S'position'
p344
F0.0008092278507040946
tp345
a(S'explain'
p346
F0.0008092278507040946
tp347
a(S'political'
p348
F0.0008092278507040946
tp349
a(S'certainly'
p350
F0.0008025948355343889
tp351
a(S'natural'
p352
F0.0007959618203646832
tp353
a(S'reality'
p354
F0.0007959618203646832
tp355
a(S'show'
p356
F0.0007959618203646832
tp357
a(S'exists'
p358
F0.0007826957900252718
tp359
a(S'muslim'
p360
F0.0007826957900252718
tp361
a(S'few'
p362
F0.0007627967445161547
tp363
a(S'jim'
p364
F0.000756163729346449
tp365
a(S'books'
p366
F0.000756163729346449
tp367
a(S'put'
p368
F0.000756163729346449
tp369
a(S'posting'
p370
F0.000756163729346449
tp371
a(S'under'
p372
F0.000756163729346449
tp373
a(S'following'
p374
F0.0007495307141767433
tp375
a(S'once'
p376
F0.0007495307141767433
tp377
a(S'consider'
p378
F0.0007428976990070376
tp379
a(S'around'
p380
F0.000736264683837332
tp381
a(S'whole'
p382
F0.000736264683837332
tp383
a(S'arguments'
p384
F0.000736264683837332
tp385
a(S'peace'
p386
F0.0007296316686676263
tp387
a(S'support'
p388
F0.0007229986534979206
tp389
a(S'through'
p390
F0.0007229986534979206
tp391
a(S'itself'
p392
F0.0007229986534979206
tp393
a(S'john'
p394
F0.0007163656383282149
tp395
a(S'set'
p396
F0.0007097326231585092
tp397
a(S'seen'
p398
F0.0007097326231585092
tp399
a(S'faq'
p400
F0.0007097326231585092
tp401
aa(lp402
(S'image'
p403
F0.008918706173766727
tp404
a(g12
F0.007922122002123158
tp405
a(S'graphics'
p406
F0.005640088681548028
tp407
a(S'file'
p408
F0.004997364107082247
tp409
a(S'jpeg'
p410
F0.004997364107082247
tp411
a(S'images'
p412
F0.00425353679056567
tp413
a(S'd'
p414
F0.004174098921811472
tp415
a(S'bit'
p416
F0.004159655672947073
tp417
a(S'use'
p418
F0.0036974717092862867
tp419
a(S'software'
p420
F0.0036902500848540873
tp421
a(S'files'
p422
F0.0036469203382608886
tp423
a(S'data'
p424
F0.0035530392206422914
tp425
a(S'available'
p426
F0.0035530392206422914
tp427
a(S'format'
p428
F0.003516931098481292
tp429
a(S'x'
p430
F0.0033580553609728974
tp431
a(S'program'
p432
F0.003242509370057701
tp433
a(S'know'
p434
F0.003040303885956107
tp435
a(S'version'
p436
F0.0028814281484477117
tp437
a(S'email'
p438
F0.0027514389086681157
tp439
a(S'color'
p440
F0.002650336166617319
tp441
a(S'gif'
p442
F0.002635892917752919
tp443
a(S'computer'
p444
F0.0026214496688885197
tp445
a(S'ftp'
p446
F0.0025997847955919204
tp447
a(S'need'
p448
F0.002585341546727521
tp449
a(S'information'
p450
F0.0025275685512699225
tp451
a(S'please'
p452
F0.0024914604291089238
tp453
a(S'display'
p454
F0.002390357687058127
tp455
a(S'help'
p456
F0.00229647656943953
tp457
a(S'thanks'
p458
F0.002224260325117532
tp459
a(S'anyone'
p460
F0.002224260325117532
tp461
a(S'system'
p462
F0.0022098170762531325
tp463
a(S'see'
p464
F0.002152044080795534
tp465
a(S'package'
p466
F0.002101492709770136
tp467
a(S'using'
p468
F0.002058162963176937
tp469
a(S'code'
p470
F0.002029276465448138
tp471
a(S'find'
p472
F0.0020076115921515386
tp473
a(S'c'
p474
F0.0018415142302109437
tp475
a(S'good'
p476
F0.001827070981346544
tp477
a(S'free'
p478
F0.0017837412347533454
tp479
a(S'send'
p480
F0.0017404114881601467
tp481
a(S'want'
p482
F0.001733189863727947
tp483
a(S'programs'
p484
F0.0017115249904313477
tp485
a(S'time'
p486
F0.0016826384927025484
tp487
a(S'line'
p488
F0.0016537519949737494
tp489
a(S'number'
p490
F0.0016393087461093498
tp491
a(S'etc'
p492
F0.0016393087461093498
tp493
a(S'o'
p494
F0.00163208712167715
tp495
a(S'well'
p496
F0.0016176438728127504
tp497
a(S'video'
p498
F0.001603200623948351
tp499
a(S'new'
p500
F0.0015959789995161511
tp501
a(S'looking'
p502
F0.0015815357506517517
tp503
a(S'windows'
p504
F0.0015526492529229525
tp505
a(S'distribution'
p506
F0.0015309843796263531
tp507
a(S'problem'
p508
F0.0015309843796263531
tp509
a(S'formats'
p510
F0.0015237627551941534
tp511
a(S'used'
p512
F0.0015237627551941534
tp513
a(S'work'
p514
F0.0014948762574653542
tp515
a(S'systems'
p516
F0.0014948762574653542
tp517
a(S'mail'
p518
F0.0014876546330331545
tp519
a(S'fax'
p520
F0.0014804330086009548
tp521
a(S'think'
p522
F0.0014587681353043554
tp523
a(S'processing'
p524
F0.0014443248864399558
tp525
a(S'point'
p526
F0.0014009951398467572
tp527
a(S'support'
p528
F0.0013937735154145574
tp529
a(S'read'
p530
F0.0013504437688213586
tp531
a(S'world'
p532
F0.0013215572710925595
tp533
a(S'tiff'
p534
F0.0013215572710925595
tp535
a(S'keywords'
p536
F0.0013143356466603598
tp537
a(S'mac'
p538
F0.0013143356466603598
tp539
a(S'quality'
p540
F0.0012926707733637605
tp541
a(S'make'
p542
F0.0012926707733637605
tp543
a(S'library'
p544
F0.0012854491489315606
tp545
a(S'same'
p546
F0.0012637842756349613
tp547
a(S'pc'
p548
F0.0012637842756349613
tp549
a(S'convert'
p550
F0.0012493410267705618
tp551
a(S'card'
p552
F0.0012276761534739625
tp553
a(S'way'
p554
F0.0012132329046095629
tp555
a(S'group'
p556
F0.0012132329046095629
tp557
a(S'both'
p558
F0.0012060112801773632
tp559
a(S'source'
p560
F0.0012060112801773632
tp561
a(S'directory'
p562
F0.0011915680313129636
tp563
a(S'better'
p564
F0.0011843464068807639
tp565
a(S'people'
p566
F0.0011626815335841645
tp567
a(S'points'
p568
F0.0011554599091519646
tp569
a(S'first'
p570
F0.001148238284719765
tp571
a(S'address'
p572
F0.001141016660287565
tp573
a(S'info'
p574
F0.001141016660287565
tp575
a(S'polygon'
p576
F0.001141016660287565
tp577
a(S'those'
p578
F0.0011337950358553653
tp579
a(S'look'
p580
F0.0011265734114231656
tp581
a(S'screen'
p582
F0.001112130162558766
tp583
a(S'another'
p584
F0.0010976869136943663
tp585
a(S'different'
p586
F0.0010904652892621666
tp587
a(S'contact'
p588
F0.001083243664829967
tp589
a(S'research'
p590
F0.001076022040397767
tp591
a(S'set'
p592
F0.0010688004159655673
tp593
a(S'under'
p594
F0.0010615787915333676
tp595
a(S'colors'
p596
F0.0010543571671011677
tp597
a(S'list'
p598
F0.0010543571671011677
tp599
a(S'user'
p600
F0.001047135542668968
tp601
a(S'ray'
p602
F0.001047135542668968
tp603
a(S'without'
p604
F0.001047135542668968
tp605
a(S'sun'
p606
F0.001047135542668968
tp607
a(S'xv'
p608
F0.0010399139182367683
tp609
a(S'sites'
p610
F0.0010326922938045683
tp611
a(S'viewer'
p612
F0.0010326922938045683
tp613
a(S'via'
p614
F0.0010254706693723686
tp615
a(S'sgi'
p616
F0.0010254706693723686
tp617
a(S'note'
p618
F0.001018249044940169
tp619
a(S'analysis'
p620
F0.001018249044940169
tp621
a(S'unix'
p622
F0.001011027420507969
tp623
a(S'standard'
p624
F0.0009965841716435696
tp625
a(S'center'
p626
F0.0009893625472113697
tp627
a(S'internet'
p628
F0.0009676976739147703
tp629
a(S'something'
p630
F0.0009676976739147703
tp631
a(S'hardware'
p632
F0.0009604760494825706
tp633
a(S'run'
p634
F0.0009604760494825706
tp635
a(S'p'
p636
F0.0009532544250503708
tp637
a(S'go'
p638
F0.0009532544250503708
tp639
a(S'conversion'
p640
F0.000946032800618171
tp641
a(S'bits'
p642
F0.000946032800618171
tp643
a(S'here'
p644
F0.0009388111761859713
tp645
a(S'algorithm'
p646
F0.0009388111761859713
tp647
a(S'write'
p648
F0.0009388111761859713
tp649
a(S'fast'
p650
F0.0009388111761859713
tp651
a(S'objects'
p652
F0.0009388111761859713
tp653
a(S'faq'
p654
F0.0009388111761859713
tp655
a(S'v'
p656
F0.0009388111761859713
tp657
a(S'animation'
p658
F0.0009315895517537715
tp659
a(S'mode'
p660
F0.0009243679273215717
tp661
a(S'based'
p662
F0.0009243679273215717
tp663
a(S'each'
p664
F0.0009243679273215717
tp665
a(S'above'
p666
F0.000917146302889372
tp667
a(S'best'
p668
F0.0009099246784571722
tp669
a(S'over'
p670
F0.0009099246784571722
tp671
a(S'try'
p672
F0.0009099246784571722
tp673
a(S'few'
p674
F0.0009027030540249724
tp675
a(S'hi'
p676
F0.0009027030540249724
tp677
a(S'lot'
p678
F0.0008882598051605728
tp679
a(S'project'
p680
F0.000881038180728373
tp681
a(S'current'
p682
F0.000881038180728373
tp683
a(S'stuff'
p684
F0.000881038180728373
tp685
a(S'site'
p686
F0.000881038180728373
tp687
a(S'between'
p688
F0.0008665949318639735
tp689
a(S'programming'
p690
F0.0008593733074317737
tp691
a(S'called'
p692
F0.0008593733074317737
tp693
a(S'original'
p694
F0.0008521516829995739
tp695
a(S'post'
p696
F0.0008521516829995739
tp697
a(S'include'
p698
F0.0008521516829995739
tp699
a(S'ibm'
p700
F0.0008449300585673742
tp701
a(S'amiga'
p702
F0.0008449300585673742
tp703
a(S'vga'
p704
F0.0008304868097029746
tp705
a(S'postscript'
p706
F0.0008304868097029746
tp707
a(S'space'
p708
F0.0008304868097029746
tp709
a(S'shareware'
p710
F0.0008304868097029746
tp711
a(S'users'
p712
F0.0008304868097029746
tp713
a(S'quicktime'
p714
F0.000816043560838575
tp715
a(S'around'
p716
F0.0008088219364063752
tp717
a(S'output'
p718
F0.0008088219364063752
tp719
a(S'book'
p720
F0.0008088219364063752
tp721
a(S'full'
p722
F0.0008016003119741755
tp723
a(S'tools'
p724
F0.0007943786875419757
tp725
a(S'phone'
p726
F0.0007943786875419757
tp727
a(S'inc'
p728
F0.0007871570631097759
tp729
a(S'interested'
p730
F0.0007871570631097759
tp731
a(S'give'
p732
F0.0007871570631097759
tp733
a(g214
F0.0007871570631097759
tp734
a(S'back'
p735
F0.0007799354386775761
tp736
a(S'name'
p737
F0.0007799354386775761
tp738
a(S'interface'
p739
F0.0007727138142453764
tp740
a(S'simple'
p741
F0.0007727138142453764
tp742
a(S'check'
p743
F0.0007727138142453764
tp744
a(S'following'
p745
F0.0007582705653809768
tp746
a(S'view'
p747
F0.0007582705653809768
tp748
a(S'applications'
p749
F0.000751048940948777
tp750
a(S'pixel'
p751
F0.000751048940948777
tp752
a(S'still'
p753
F0.0007438273165165772
tp754
a(S'dos'
p755
F0.0007438273165165772
tp756
a(S'take'
p757
F0.0007366056920843774
tp758
a(S'anything'
p759
F0.0007366056920843774
tp760
a(S'type'
p761
F0.0007366056920843774
tp762
a(S'machine'
p763
F0.0007293840676521777
tp764
a(S'advance'
p765
F0.0007293840676521777
tp766
a(S'sure'
p767
F0.0007293840676521777
tp768
a(S'compression'
p769
F0.0007221624432199779
tp770
a(S'archive'
p771
F0.0007221624432199779
tp772
a(S'written'
p773
F0.0007221624432199779
tp774
a(S'visualization'
p775
F0.0007149408187877781
tp776
a(S'question'
p777
F0.0007149408187877781
tp778
a(S'before'
p779
F0.0007077191943555784
tp780
a(S'q'
p781
F0.0007077191943555784
tp782
a(S'per'
p783
F0.0007077191943555784
tp784
a(S'found'
p785
F0.0007004975699233786
tp786
a(S'text'
p787
F0.0007004975699233786
tp788
a(S'vesa'
p789
F0.0007004975699233786
tp790
a(S'article'
p791
F0.0006932759454911788
tp792
a(S'someone'
p793
F0.0006932759454911788
tp794
a(S'rendering'
p795
F0.0006860543210589791
tp796
a(S'siggraph'
p797
F0.0006860543210589791
tp798
a(S'through'
p799
F0.0006860543210589791
tp800
aa(lp801
(S'windows'
p802
F0.017272842602441617
tp803
a(g12
F0.012900959277077864
tp804
a(S'file'
p805
F0.006606618328730495
tp806
a(S'dos'
p807
F0.005767372868950846
tp808
a(S'use'
p809
F0.00526968079396524
tp810
a(S'm'
p811
F0.004537780683692289
tp812
a(S'files'
p813
F0.004157192626350356
tp814
a(S'know'
p815
F0.003991295268021821
tp816
a(S'using'
p817
F0.0037570872327344763
tp818
a(S'card'
p819
F0.0034350511842143783
tp820
a(S'problem'
p821
F0.003396016511666488
tp822
a(S'program'
p823
F0.0032301191533379526
tp824
a(S'driver'
p825
F0.003152049808242171
tp826
a(S'microsoft'
p827
F0.002888565768543909
tp828
a(S'os'
p829
F0.002888565768543909
tp830
a(S'thanks'
p831
F0.0028788071004069364
tp832
a(S'anyone'
p833
F0.0028788071004069364
tp834
a(S'run'
p835
F0.0028495310959960186
tp836
a(S'help'
p837
F0.0027909790871741827
tp838
a(S'drivers'
p839
F0.0025860470562977566
tp840
a(S'mouse'
p841
F0.0025470123837498656
tp842
a(S'version'
p843
F0.002459184370517112
tp844
a(S'system'
p845
F0.002449425702380139
tp846
a(S'think'
p847
F0.002449425702380139
tp848
a(S'win'
p849
F0.002361597689147385
tp850
a(S'work'
p851
F0.00234208035287344
tp852
a(S'please'
p853
F0.00234208035287344
tp854
a(S'distribution'
p855
F0.002244493671503713
tp856
a(S'need'
p857
F0.0022152176670927953
tp858
a(S'nt'
p859
F0.002078596313175178
tp860
a(S'email'
p861
F0.0020590789769012324
tp862
a(g430
F0.0020590789769012324
tp863
a(S'well'
p864
F0.0020298029724903147
tp865
a(S'good'
p866
F0.002010285636216369
tp867
a(S'disk'
p868
F0.0019517336273945332
tp869
a(g474
F0.0019517336273945332
tp870
a(S'ms'
p871
F0.0019322162911205878
tp872
a(S'running'
p873
F0.0019126989548466425
tp874
a(S'memory'
p875
F0.0019126989548466425
tp876
a(S'under'
p877
F0.0018736642822987518
tp878
a(S'make'
p879
F0.0018443882778878338
tp880
a(S'new'
p881
F0.0018346296097508613
tp882
a(S'want'
p883
F0.0018151122734769158
tp884
a(S'time'
p885
F0.0017760776009290251
tp886
a(S'set'
p887
F0.0017565602646550799
tp888
a(S'software'
p889
F0.0017565602646550799
tp890
a(S'printer'
p891
F0.0017175255921071891
tp892
a(S'used'
p893
F0.0017077669239702166
tp894
a(S'manager'
p895
F0.0017077669239702166
tp896
a(S'font'
p897
F0.001698008255833244
tp898
a(S'way'
p899
F0.0016882495876962712
tp900
a(g636
F0.0015711455700525992
tp901
a(S'computer'
p902
F0.001551628233778654
tp903
a(S'same'
p904
F0.001551628233778654
tp905
a(S'something'
p906
F0.001522352229367736
tp907
a(S'people'
p908
F0.0015028348930937905
tp909
a(S'find'
p910
F0.0015028348930937905
tp911
a(S'video'
p912
F0.0014540415524089273
tp913
a(S'directory'
p914
F0.0014540415524089273
tp915
a(S'available'
p916
F0.0014442828842719546
tp917
a(S'access'
p918
F0.0014442828842719546
tp919
a(S'mode'
p920
F0.0014247655479980093
tp921
a(S'data'
p922
F0.0014150068798610366
tp923
a(S'window'
p924
F0.0014150068798610366
tp925
a(S'problems'
p926
F0.0014150068798610366
tp927
a(S'here'
p928
F0.0013857308754501186
tp929
a(S'drive'
p930
F0.0013759722073131459
tp931
a(S'bit'
p932
F0.0013759722073131459
tp933
a(S'read'
p934
F0.0013369375347652551
tp935
a(S'pc'
p936
F0.0013369375347652551
tp937
a(S'fonts'
p938
F0.0013271788666282826
tp939
a(S'information'
p940
F0.0013271788666282826
tp941
a(S'machine'
p942
F0.00131742019849131
tp943
a(S'right'
p944
F0.00131742019849131
tp945
a(S'still'
p946
F0.00131742019849131
tp947
a(S'applications'
p948
F0.0012979028622173646
tp949
a(S'better'
p950
F0.0012979028622173646
tp951
a(S'try'
p952
F0.0012979028622173646
tp953
a(S'first'
p954
F0.0012783855259434192
tp955
a(S'those'
p956
F0.0012783855259434192
tp957
a(g414
F0.0012686268578064467
tp958
a(S'print'
p959
F0.001258868189669474
tp960
a(S'screen'
p961
F0.0012393508533955287
tp962
a(S'really'
p963
F0.0012393508533955287
tp964
a(S'world'
p965
F0.0012198335171215832
tp966
a(S'ftp'
p967
F0.0012100748489846105
tp968
a(S'see'
p969
F0.001200316180847638
tp970
a(S'mb'
p971
F0.0011905575127106652
tp972
a(S'application'
p973
F0.0011807988445736925
tp974
a(g656
F0.0011807988445736925
tp975
a(S'usa'
p976
F0.0011807988445736925
tp977
a(S'internet'
p978
F0.00117104017643672
tp979
a(S'keywords'
p980
F0.00117104017643672
tp981
a(S'change'
p982
F0.0011612815082997472
tp983
a(S'support'
p984
F0.001141764172025802
tp985
a(S'systems'
p986
F0.0011320055038888293
tp987
a(S'before'
p988
F0.0011320055038888293
tp989
a(S'k'
p990
F0.0011222468357518565
tp991
a(S'both'
p992
F0.0011222468357518565
tp993
a(S'fax'
p994
F0.001112488167614884
tp995
a(S'swap'
p996
F0.0011027294994779113
tp997
a(S'looking'
p998
F0.001083212163203966
tp999
a(S'programs'
p1000
F0.001083212163203966
tp1001
a(S'sure'
p1002
F0.0010734534950669933
tp1003
a(S'graphics'
p1004
F0.0010636948269300206
tp1005
a(S'ati'
p1006
F0.0010539361587930478
tp1007
a(S'mail'
p1008
F0.0010539361587930478
tp1009
a(S'over'
p1010
F0.0010441774906560753
tp1011
a(S'question'
p1012
F0.0010441774906560753
tp1013
a(S'things'
p1014
F0.0010344188225191026
tp1015
a(S'tried'
p1016
F0.0010344188225191026
tp1017
a(S'tell'
p1018
F0.0010344188225191026
tp1019
a(S'apps'
p1020
F0.0010344188225191026
tp1021
a(S'size'
p1022
F0.0010246601543821298
tp1023
a(S'without'
p1024
F0.0010246601543821298
tp1025
a(S'never'
p1026
F0.0009953841499712119
tp1027
a(S'ibm'
p1028
F0.0009758668136972666
tp1029
a(S'works'
p1030
F0.0009758668136972666
tp1031
a(S'around'
p1032
F0.0009661081455602939
tp1033
a(S'users'
p1034
F0.0009661081455602939
tp1035
a(S'etc'
p1036
F0.0009563494774233213
tp1037
a(S'number'
p1038
F0.0009465908092863486
tp1039
a(S'each'
p1040
F0.0009465908092863486
tp1041
a(S'word'
p1042
F0.0009368321411493759
tp1043
a(S'name'
p1044
F0.0009368321411493759
tp1045
a(S'seems'
p1046
F0.0009368321411493759
tp1047
a(S'unix'
p1048
F0.0009270734730124033
tp1049
a(S'network'
p1050
F0.0009270734730124033
tp1051
a(S'hi'
p1052
F0.0009270734730124033
tp1053
a(S'user'
p1054
F0.0009173148048754306
tp1055
a(S'ram'
p1056
F0.0009173148048754306
tp1057
a(S'found'
p1058
F0.0008977974686014853
tp1059
a(S'setup'
p1060
F0.0008977974686014853
tp1061
a(S'diamond'
p1062
F0.0008880388004645126
tp1063
a(S'seen'
p1064
F0.0008782801323275399
tp1065
a(S'another'
p1066
F0.0008587627960535946
tp1067
a(S'look'
p1068
F0.000849004127916622
tp1069
a(S'type'
p1070
F0.000849004127916622
tp1071
a(S'box'
p1072
F0.000849004127916622
tp1073
a(S'copy'
p1074
F0.000849004127916622
tp1075
a(S'having'
p1076
F0.0008392454597796493
tp1077
a(S'challenge'
p1078
F0.0008392454597796493
tp1079
a(S'group'
p1080
F0.0008392454597796493
tp1081
a(g214
F0.0008392454597796493
tp1082
a(S'someone'
p1083
F0.000819728123505704
tp1084
a(S'disks'
p1085
F0.000819728123505704
tp1086
a(S'anybody'
p1087
F0.000819728123505704
tp1088
a(S'image'
p1089
F0.0008099694553687312
tp1090
a(S'mac'
p1091
F0.0008099694553687312
tp1092
a(S'mswindows'
p1093
F0.0008099694553687312
tp1094
a(S'product'
p1095
F0.0008002107872317586
tp1096
a(S'control'
p1097
F0.0008002107872317586
tp1098
a(S'hp'
p1099
F0.0008002107872317586
tp1100
a(S'risc'
p1101
F0.0008002107872317586
tp1102
a(S'though'
p1103
F0.0008002107872317586
tp1104
a(S'give'
p1105
F0.000790452119094786
tp1106
a(S'phone'
p1107
F0.000790452119094786
tp1108
a(g494
F0.0007806934509578132
tp1109
a(S'space'
p1110
F0.0007806934509578132
tp1111
a(S'called'
p1112
F0.0007806934509578132
tp1113
a(S'few'
p1114
F0.0007806934509578132
tp1115
a(S'load'
p1116
F0.0007709347828208406
tp1117
a(S'info'
p1118
F0.0007709347828208406
tp1119
a(S'advance'
p1120
F0.0007709347828208406
tp1121
a(S'thing'
p1122
F0.0007709347828208406
tp1123
a(S'text'
p1124
F0.0007709347828208406
tp1125
a(S'installed'
p1126
F0.0007709347828208406
tp1127
a(S'address'
p1128
F0.000761176114683868
tp1129
a(S'desktop'
p1130
F0.000761176114683868
tp1131
a(S'hard'
p1132
F0.000761176114683868
tp1133
a(S'back'
p1134
F0.0007514174465468953
tp1135
a(S'going'
p1136
F0.0007416587784099226
tp1137
a(S'package'
p1138
F0.0007416587784099226
tp1139
a(S'mean'
p1140
F0.0007416587784099226
tp1141
a(S'supporters'
p1142
F0.0007319001102729499
tp1143
a(S'w'
p1144
F0.0007319001102729499
tp1145
a(S'post'
p1146
F0.0007319001102729499
tp1147
a(S'probably'
p1148
F0.0007319001102729499
tp1149
a(S'go'
p1150
F0.0007319001102729499
tp1151
a(S'best'
p1152
F0.0007221414421359773
tp1153
a(S'different'
p1154
F0.0007221414421359773
tp1155
a(S'part'
p1156
F0.0007221414421359773
tp1157
a(S'fine'
p1158
F0.0007221414421359773
tp1159
a(S'modem'
p1160
F0.0007221414421359773
tp1161
a(S's'
p1162
F0.0007123827739990047
tp1163
a(S'being'
p1164
F0.0007123827739990047
tp1165
a(S'bj'
p1166
F0.0007123827739990047
tp1167
a(S'anything'
p1168
F0.0007123827739990047
tp1169
a(S'command'
p1170
F0.0007123827739990047
tp1171
a(S'hope'
p1172
F0.0007026241058620319
tp1173
a(S'true'
p1174
F0.0007026241058620319
tp1175
a(S'utility'
p1176
F0.0007026241058620319
tp1177
a(S'performance'
p1178
F0.0007026241058620319
tp1179
a(S'end'
p1180
F0.0007026241058620319
tp1181
a(S'line'
p1182
F0.0006928654377250593
tp1183
a(S'next'
p1184
F0.0006928654377250593
tp1185
a(S'lot'
p1186
F0.0006928654377250593
tp1187
a(S'pro'
p1188
F0.0006928654377250593
tp1189
a(S'possible'
p1190
F0.0006831067695880866
tp1191
a(S'real'
p1192
F0.0006831067695880866
tp1193
aa(lp1194
(g12
F0.011039266640748092
tp1195
a(S'drive'
p1196
F0.010282171430909946
tp1197
a(S'scsi'
p1198
F0.009903623825990873
tp1199
a(S'card'
p1200
F0.006046530662355999
tp1201
a(S'ide'
p1202
F0.005473593746802808
tp1203
a(S'system'
p1204
F0.004747191586012154
tp1205
a(S'use'
p1206
F0.004603957357123857
tp1207
a(S'controller'
p1208
F0.004583495324425528
tp1209
a(S'know'
p1210
F0.004153792637760635
tp1211
a(S'bus'
p1212
F0.004061713490618158
tp1213
a(S'disk'
p1214
F0.004031020441570666
tp1215
a(S'drives'
p1216
F0.0038673241799840395
tp1217
a(S'dx'
p1218
F0.003713858934746578
tp1219
a(S'mb'
p1220
F0.003652472836651593
tp1221
a(S'hard'
p1222
F0.003642241820302429
tp1223
a(S'problem'
p1224
F0.0035501626731599518
tp1225
a(S'thanks'
p1226
F0.0035194696241124595
tp1227
a(S'help'
p1228
F0.003509238607763295
tp1229
a(S'anyone'
p1230
F0.0033762353952241616
tp1231
a(S'pc'
p1232
F0.0032739252317325203
tp1233
a(S'work'
p1234
F0.003110228970145894
tp1235
a(S'bit'
p1236
F0.0029772257576067608
tp1237
a(S'bios'
p1238
F0.0028749155941151195
tp1239
a(g430
F0.0028646845777659555
tp1240
a(S'dos'
p1241
F0.0028646845777659555
tp1242
a(S'using'
p1243
F0.0027521433979251497
tp1244
a(S'data'
p1245
F0.0026702952671318367
tp1246
a(S'need'
p1247
F0.0026498332344335085
tp1248
a(S'please'
p1249
F0.0026498332344335085
tp1250
a(S'windows'
p1251
F0.0026293712017351803
tp1252
a(S'time'
p1253
F0.002537292054592703
tp1254
a(S'distribution'
p1255
F0.002496367989196047
tp1256
a(S'computer'
p1257
F0.002496367989196047
tp1258
a(S'software'
p1259
F0.0024759059564977183
tp1260
a(S'monitor'
p1261
F0.002434981891101062
tp1262
a(S'board'
p1263
F0.0023326717276094208
tp1264
a(S'email'
p1265
F0.0022508235968161077
tp1266
a(S'new'
p1267
F0.0022508235968161077
tp1268
a(S'think'
p1269
F0.0022508235968161077
tp1270
a(S'isa'
p1271
F0.0022303615641177795
tp1272
a(S'same'
p1273
F0.002199668515070287
tp1274
a(S'port'
p1275
F0.002199668515070287
tp1276
a(S'good'
p1277
F0.0021689754660227946
tp1278
a(S'drivers'
p1279
F0.0021382824169753024
tp1280
a(S'motherboard'
p1281
F0.0021382824169753024
tp1282
a(S'modem'
p1283
F0.0021382824169753024
tp1284
a(S'memory'
p1285
F0.0021075893679278097
tp1286
a(S'cpu'
p1287
F0.0020973583515786457
tp1288
a(S'mhz'
p1289
F0.0020564342861819893
tp1290
a(S'set'
p1291
F0.0019950481880870044
tp1292
a(S'used'
p1293
F0.0019745861553886763
tp1294
a(S'problems'
p1295
F0.0019745861553886763
tp1296
a(S'floppy'
p1297
F0.0019438931063411838
tp1298
a(S'speed'
p1299
F0.0019234310736428557
tp1300
a(S'gateway'
p1301
F0.0018825070082461991
tp1302
a(S'irq'
p1303
F0.001872275991897035
tp1304
a(S'tape'
p1305
F0.001862044975547871
tp1306
a(S'chip'
p1307
F0.0018415829428495426
tp1308
a(S'run'
p1309
F0.0018108898938020504
tp1310
a(S'want'
p1311
F0.0017495037957070655
tp1312
a(S'well'
p1313
F0.0017290417630087373
tp1314
a(S'cards'
p1315
F0.0017290417630087373
tp1316
a(S'video'
p1317
F0.0016881176976120808
tp1318
a(S'mode'
p1319
F0.0016369626158662602
tp1320
a(S'running'
p1321
F0.0015755765177712755
tp1322
a(S'program'
p1323
F0.001534652452374619
tp1324
a(S'both'
p1325
F0.0015244214360254549
tp1326
a(S'support'
p1327
F0.0015039594033271265
tp1328
a(S'interface'
p1329
F0.0015039594033271265
tp1330
a(S'ram'
p1331
F0.0015039594033271265
tp1332
a(S'vlb'
p1333
F0.001473266354279634
tp1334
a(S'local'
p1335
F0.001473266354279634
tp1336
a(g214
F0.00146303533793047
tp1337
a(S'world'
p1338
F0.0014425733052321418
tp1339
a(S'make'
p1340
F0.0014221112725338134
tp1341
a(S'machine'
p1342
F0.0014118802561846494
tp1343
a(S'hardware'
p1344
F0.0014118802561846494
tp1345
a(S'os'
p1346
F0.0014118802561846494
tp1347
a(S'read'
p1348
F0.0014016492398354853
tp1349
a(S'info'
p1350
F0.001381187207137157
tp1351
a(S'pin'
p1352
F0.001381187207137157
tp1353
a(g474
F0.001381187207137157
tp1354
a(S'really'
p1355
F0.0013709561907879928
tp1356
a(S'dma'
p1357
F0.0013709561907879928
tp1358
a(S'ibm'
p1359
F0.0013504941580896647
tp1360
a(S'those'
p1361
F0.0013504941580896647
tp1362
a(S'hd'
p1363
F0.0013402631417405006
tp1364
a(S'way'
p1365
F0.0013300321253913363
tp1366
a(S'better'
p1367
F0.0013095700926930081
tp1368
a(S'advance'
p1369
F0.001299339076343844
tp1370
a(S'something'
p1371
F0.00128910805999468
tp1372
a(S'number'
p1373
F0.0012788770436455157
tp1374
a(S'cdrom'
p1375
F0.0012686460272963516
tp1376
a(S'power'
p1377
F0.0012584150109471875
tp1378
a(S'back'
p1379
F0.0012584150109471875
tp1380
a(S'someone'
p1381
F0.0012481839945980234
tp1382
a(S'people'
p1383
F0.0012379529782488592
tp1384
a(S'etc'
p1385
F0.0012379529782488592
tp1386
a(S'first'
p1387
F0.0012379529782488592
tp1388
a(S'standard'
p1389
F0.001227721961899695
tp1390
a(S'works'
p1391
F0.001227721961899695
tp1392
a(g656
F0.001227721961899695
tp1393
a(S'another'
p1394
F0.001217490945550531
tp1395
a(S'systems'
p1396
F0.001217490945550531
tp1397
a(S'buy'
p1398
F0.001217490945550531
tp1399
a(S'see'
p1400
F0.001207259929201367
tp1401
a(S'driver'
p1402
F0.0011970289128522028
tp1403
a(S'jumper'
p1404
F0.0011867978965030385
tp1405
a(S'question'
p1406
F0.0011867978965030385
tp1407
a(S'monitors'
p1408
F0.0011765668801538745
tp1409
a(S'mbs'
p1410
F0.0011663358638047104
tp1411
a(S'internet'
p1412
F0.0011663358638047104
tp1413
a(g990
F0.0011561048474555463
tp1414
a(S'adaptec'
p1415
F0.0011561048474555463
tp1416
a(S'right'
p1417
F0.0011561048474555463
tp1418
a(S'faster'
p1419
F0.0011561048474555463
tp1420
a(S'address'
p1421
F0.001145873831106382
tp1422
a(S'price'
p1423
F0.001145873831106382
tp1424
a(S'cache'
p1425
F0.001145873831106382
tp1426
a(g1162
F0.001135642814757218
tp1427
a(S'here'
p1428
F0.0011254117984080539
tp1429
a(S'uses'
p1430
F0.0011254117984080539
tp1431
a(S'devices'
p1432
F0.0011151807820588898
tp1433
a(S'keywords'
p1434
F0.0011151807820588898
tp1435
a(S'go'
p1436
F0.0011049497657097257
tp1437
a(S'fast'
p1438
F0.0010947187493605614
tp1439
a(S'eisa'
p1440
F0.0010947187493605614
tp1441
a(S'tell'
p1442
F0.0010844877330113973
tp1443
a(S'find'
p1444
F0.0010844877330113973
tp1445
a(S'without'
p1446
F0.0010844877330113973
tp1447
a(S'transfer'
p1448
F0.0010844877330113973
tp1449
a(S'high'
p1450
F0.0010742567166622332
tp1451
a(S'diamond'
p1452
F0.0010640257003130692
tp1453
a(S'slave'
p1454
F0.0010640257003130692
tp1455
a(S'master'
p1456
F0.0010537946839639049
tp1457
a(S'hi'
p1458
F0.0010537946839639049
tp1459
a(S'possible'
p1460
F0.0010435636676147408
tp1461
a(S'settings'
p1462
F0.0010435636676147408
tp1463
a(S'vs'
p1464
F0.0010435636676147408
tp1465
a(S'appreciated'
p1466
F0.0010435636676147408
tp1467
a(S'j'
p1468
F0.0010435636676147408
tp1469
a(S'usa'
p1470
F0.0010435636676147408
tp1471
a(S'under'
p1472
F0.0010333326512655767
tp1473
a(S'over'
p1474
F0.0010231016349164126
tp1475
a(S'installed'
p1476
F0.0010231016349164126
tp1477
a(S'version'
p1478
F0.0010231016349164126
tp1479
a(S'still'
p1480
F0.0010128706185672486
tp1481
a(S'available'
p1482
F0.0010128706185672486
tp1483
a(S'ati'
p1484
F0.0010026396022180843
tp1485
a(S'anything'
p1486
F0.0010026396022180843
tp1487
a(S'information'
p1488
F0.0010026396022180843
tp1489
a(S'sure'
p1490
F0.0010026396022180843
tp1491
a(S'boot'
p1492
F0.0009924085858689202
tp1493
a(S'disks'
p1494
F0.000982177569519756
tp1495
a(S'phone'
p1496
F0.000982177569519756
tp1497
a(S'seems'
p1498
F0.000982177569519756
tp1499
a(S'fax'
p1500
F0.000982177569519756
tp1501
a(S'bought'
p1502
F0.000982177569519756
tp1503
a(S'between'
p1504
F0.0009719465531705919
tp1505
a(S'tried'
p1506
F0.0009719465531705919
tp1507
a(S'thing'
p1508
F0.0009719465531705919
tp1509
a(S'try'
p1510
F0.0009617155368214278
tp1511
a(S'serial'
p1512
F0.0009617155368214278
tp1513
a(S'getting'
p1514
F0.0009617155368214278
tp1515
a(S'meg'
p1516
F0.0009514845204722638
tp1517
a(S'performance'
p1518
F0.0009514845204722638
tp1519
a(S'different'
p1520
F0.0009514845204722638
tp1521
a(S'yes'
p1522
F0.0009412535041230996
tp1523
a(S'through'
p1524
F0.0009412535041230996
tp1525
a(S'rom'
p1526
F0.0009412535041230996
tp1527
a(S'files'
p1528
F0.0009412535041230996
tp1529
a(S'second'
p1530
F0.0009310224877739355
tp1531
a(S'looking'
p1532
F0.0009310224877739355
tp1533
a(S'connector'
p1534
F0.0009310224877739355
tp1535
a(S'fine'
p1536
F0.0009310224877739355
tp1537
a(S'going'
p1538
F0.0009207914714247713
tp1539
a(S'seen'
p1540
F0.0009207914714247713
tp1541
a(S'switch'
p1542
F0.0009207914714247713
tp1543
a(S'error'
p1544
F0.0009105604550756072
tp1545
a(S'note'
p1546
F0.0009105604550756072
tp1547
a(S'called'
p1548
F0.0009105604550756072
tp1549
a(S'put'
p1550
F0.000900329438726443
tp1551
a(S'access'
p1552
F0.000900329438726443
tp1553
a(S'last'
p1554
F0.000890098422377279
tp1555
a(S'screen'
p1556
F0.0008696363896789507
tp1557
a(S'cable'
p1558
F0.0008696363896789507
tp1559
a(S'look'
p1560
F0.0008696363896789507
tp1561
a(S'file'
p1562
F0.0008696363896789507
tp1563
a(g811
F0.0008594053733297866
tp1564
a(S'following'
p1565
F0.0008491743569806224
tp1566
a(S'trying'
p1567
F0.0008491743569806224
tp1568
a(S'again'
p1569
F0.0008491743569806224
tp1570
a(S'supports'
p1571
F0.0008491743569806224
tp1572
a(S'send'
p1573
F0.0008389433406314584
tp1574
a(S'heard'
p1575
F0.0008389433406314584
tp1576
a(S'type'
p1577
F0.0008389433406314584
tp1578
a(S'old'
p1579
F0.0008287123242822942
tp1580
a(g494
F0.0008287123242822942
tp1581
a(S'mouse'
p1582
F0.0008287123242822942
tp1583
a(S'probably'
p1584
F0.0008287123242822942
tp1585
aa(lp1586
(g12
F0.01202493242870539
tp1587
a(S'mac'
p1588
F0.008483644988692151
tp1589
a(S'apple'
p1590
F0.006332395609244856
tp1591
a(S'know'
p1592
F0.0049313255005791826
tp1593
a(S'drive'
p1594
F0.004754812730983507
tp1595
a(S'system'
p1596
F0.004611396105687021
tp1597
a(S'problem'
p1598
F0.004203210325997022
tp1599
a(S'use'
p1600
F0.004148050085498373
tp1601
a(S'monitor'
p1602
F0.0035743835843124274
tp1603
a(S'anyone'
p1604
F0.0034750951514148603
tp1605
a(S'scsi'
p1606
F0.003243422141320536
tp1607
a(S'thanks'
p1608
F0.0032323900932208064
tp1609
a(S'new'
p1610
F0.0031882619008218875
tp1611
a(S'bit'
p1612
F0.0031441337084229686
tp1613
a(S'mb'
p1614
F0.0031110375641237795
tp1615
a(S'mhz'
p1616
F0.00308897346792432
tp1617
a(S'disk'
p1618
F0.0028793645540294557
tp1619
a(S'distribution'
p1620
F0.0028573004578299963
tp1621
a(S'software'
p1622
F0.002746979976832699
tp1623
a(S'computer'
p1624
F0.00270285178443378
tp1625
a(S'card'
p1626
F0.0026807876882343207
tp1627
a(S'problems'
p1628
F0.0026807876882343207
tp1629
a(S'need'
p1630
F0.0026587235920348612
tp1631
a(S'power'
p1632
F0.0026476915439351315
tp1633
a(S'work'
p1634
F0.002592531303436483
tp1635
a(S'quadra'
p1636
F0.0025704672072370234
tp1637
a(S'centris'
p1638
F0.0024932428705389154
tp1639
a(S'price'
p1640
F0.0024822108224391857
tp1641
a(S'memory'
p1642
F0.002471178774339456
tp1643
a(S'video'
p1644
F0.0024491146781399965
tp1645
a(S'think'
p1646
F0.002438082630040267
tp1647
a(S'lc'
p1648
F0.002438082630040267
tp1649
a(S'want'
p1650
F0.002404986485741078
tp1651
a(S'speed'
p1652
F0.00232776214904297
tp1653
a(S'used'
p1654
F0.0022946660047437808
tp1655
a(S'ram'
p1656
F0.002239505764245132
tp1657
a(S'hard'
p1658
F0.0022174416680456727
tp1659
a(S'time'
p1660
F0.002118153235148105
tp1661
a(S'please'
p1662
F0.0020960891389486458
tp1663
a(S'simms'
p1664
F0.0020960891389486458
tp1665
a(g430
F0.002085057090848916
tp1666
a(g474
F0.002085057090848916
tp1667
a(S'same'
p1668
F0.0020740250427491863
tp1669
a(S'world'
p1670
F0.002007832754150808
tp1671
a(S'duo'
p1672
F0.001963704561751889
tp1673
a(S'using'
p1674
F0.0019526725136521596
tp1675
a(S'good'
p1676
F0.0019526725136521596
tp1677
a(S'well'
p1678
F0.0019085443212532407
tp1679
a(S'email'
p1680
F0.0018754481769540515
tp1681
a(S'hardware'
p1682
F0.0018754481769540515
tp1683
a(S'help'
p1684
F0.0018754481769540515
tp1685
a(S'board'
p1686
F0.0018313199845551326
tp1687
a(S'machine'
p1688
F0.001776159744056484
tp1689
a(S'both'
p1690
F0.001743063599757295
tp1691
a(S'nubus'
p1692
F0.001743063599757295
tp1693
a(S'sound'
p1694
F0.0017209995035578356
tp1695
a(S'color'
p1696
F0.0016989354073583761
tp1697
a(S'make'
p1698
F0.0016768713111589167
tp1699
a(S'way'
p1700
F0.0016106790225605384
tp1701
a(S'internal'
p1702
F0.0015775828782613492
tp1703
a(S'buy'
p1704
F0.0015665508301616195
tp1705
a(S'drives'
p1706
F0.0015665508301616195
tp1707
a(S'fpu'
p1708
F0.00154448673396216
tp1709
a(S'se'
p1710
F0.00154448673396216
tp1711
a(S'monitors'
p1712
F0.0015334546858624303
tp1713
a(S'cable'
p1714
F0.0015224226377627006
tp1715
a(S'really'
p1716
F0.0015003585415632411
tp1717
a(S'something'
p1718
F0.0014893264934635116
tp1719
a(S'clock'
p1720
F0.0014782944453637819
tp1721
a(S'ii'
p1722
F0.0014782944453637819
tp1723
a(g990
F0.0014672623972640522
tp1724
a(S'question'
p1725
F0.0014562303491643224
tp1726
a(S'people'
p1727
F0.0014451983010645927
tp1728
a(S'cpu'
p1729
F0.0014451983010645927
tp1730
a(S'first'
p1731
F0.0014451983010645927
tp1732
a(S'plus'
p1733
F0.0014451983010645927
tp1734
a(S'data'
p1735
F0.001434166252964863
tp1736
a(S'iisi'
p1737
F0.001434166252964863
tp1738
a(S'powerbook'
p1739
F0.0014231342048651333
tp1740
a(S'someone'
p1741
F0.0014231342048651333
tp1742
a(S'modem'
p1743
F0.0014010701086656738
tp1744
a(S'macintosh'
p1745
F0.0013790060124662144
tp1746
a(S'machines'
p1747
F0.001356941916266755
tp1748
a(S'macs'
p1749
F0.001356941916266755
tp1750
a(S'back'
p1751
F0.001356941916266755
tp1752
a(S'here'
p1753
F0.0013348778200672955
tp1754
a(S'right'
p1755
F0.0013238457719675658
tp1756
a(S'screen'
p1757
F0.0013017816757681063
tp1758
a(S'upgrade'
p1759
F0.0013017816757681063
tp1760
a(S'go'
p1761
F0.0013017816757681063
tp1762
a(S'running'
p1763
F0.0013017816757681063
tp1764
a(S'find'
p1765
F0.0013017816757681063
tp1766
a(S'going'
p1767
F0.0012907496276683766
tp1768
a(S'pc'
p1769
F0.0012907496276683766
tp1770
a(S'pds'
p1771
F0.0012797175795686469
tp1772
a(S'vram'
p1773
F0.0012797175795686469
tp1774
a(S'chip'
p1775
F0.0012686855314689171
tp1776
a(S'meg'
p1777
F0.0012576534833691874
tp1778
a(S'number'
p1779
F0.0012576534833691874
tp1780
a(S'run'
p1781
F0.001235589387169728
tp1782
a(S'sure'
p1783
F0.001235589387169728
tp1784
a(S'lciii'
p1785
F0.0012135252909702687
tp1786
a(S'day'
p1787
F0.0012135252909702687
tp1788
a(S'between'
p1789
F0.001202493242870539
tp1790
a(S'cards'
p1791
F0.001202493242870539
tp1792
a(S'cd'
p1793
F0.0011914611947708093
tp1794
a(S'still'
p1795
F0.0011914611947708093
tp1796
a(S'info'
p1797
F0.0011914611947708093
tp1798
a(S'before'
p1799
F0.0011914611947708093
tp1800
a(S'mail'
p1801
F0.0011914611947708093
tp1802
a(S'better'
p1803
F0.0011804291466710796
tp1804
a(S'etc'
p1805
F0.0011583650504716201
tp1806
a(S'those'
p1807
F0.0011583650504716201
tp1808
a(S'fax'
p1809
F0.0011583650504716201
tp1810
a(S'heard'
p1811
F0.0011473330023718904
tp1812
a(S'external'
p1813
F0.0011473330023718904
tp1814
a(S'see'
p1815
F0.0011363009542721607
tp1816
a(S'available'
p1817
F0.0011363009542721607
tp1818
a(S'works'
p1819
F0.0011363009542721607
tp1820
a(S'tell'
p1821
F0.001125268906172431
tp1822
a(S'support'
p1823
F0.0011142368580727012
tp1824
a(S'serial'
p1825
F0.0011142368580727012
tp1826
a(S'internet'
p1827
F0.0011032048099729715
tp1828
a(S'floppy'
p1829
F0.0011032048099729715
tp1830
a(S'over'
p1831
F0.0010921727618732418
tp1832
a(S'usa'
p1833
F0.001081140713773512
tp1834
a(S'without'
p1835
F0.001081140713773512
tp1836
a(S'hd'
p1837
F0.0010701086656737823
tp1838
a(S'pb'
p1839
F0.0010701086656737823
tp1840
a(S'possible'
p1841
F0.0010590766175740526
tp1842
a(S'read'
p1843
F0.0010590766175740526
tp1844
a(S'simm'
p1845
F0.0010370125213745932
tp1846
a(S'down'
p1847
F0.0010370125213745932
tp1848
a(S'questions'
p1849
F0.0010370125213745932
tp1850
a(S'called'
p1851
F0.0010370125213745932
tp1852
a(S'getting'
p1853
F0.0010259804732748634
tp1854
a(S'around'
p1855
F0.0010149484251751337
tp1856
a(S'deal'
p1857
F0.0010149484251751337
tp1858
a(S'driver'
p1859
F0.0010149484251751337
tp1860
a(S'take'
p1861
F0.001003916377075404
tp1862
a(S'keyboard'
p1863
F0.001003916377075404
tp1864
a(S'best'
p1865
F0.0009928843289756743
tp1866
a(S'box'
p1867
F0.0009928843289756743
tp1868
a(S'performance'
p1869
F0.0009928843289756743
tp1870
a(S'file'
p1871
F0.0009928843289756743
tp1872
a(S'pin'
p1873
F0.0009928843289756743
tp1874
a(S'cache'
p1875
F0.0009928843289756743
tp1876
a(S'files'
p1877
F0.0009928843289756743
tp1878
a(S'few'
p1879
F0.0009928843289756743
tp1880
a(S'printer'
p1881
F0.0009818522808759445
tp1882
a(S'information'
p1883
F0.0009818522808759445
tp1884
a(S'put'
p1885
F0.0009818522808759445
tp1886
a(S'thing'
p1887
F0.0009818522808759445
tp1888
a(S'case'
p1889
F0.0009818522808759445
tp1890
a(S'old'
p1891
F0.0009708202327762149
tp1892
a(S'though'
p1893
F0.0009708202327762149
tp1894
a(S'come'
p1895
F0.0009708202327762149
tp1896
a(S'kind'
p1897
F0.0009708202327762149
tp1898
a(g781
F0.0009597881846764852
tp1899
a(S'seen'
p1900
F0.0009487561365767555
tp1901
a(S'seems'
p1902
F0.0009487561365767555
tp1903
a(S'last'
p1904
F0.0009487561365767555
tp1905
a(S'adapter'
p1906
F0.0009156599922775663
tp1907
a(S'another'
p1908
F0.0009156599922775663
tp1909
a(S'ethernet'
p1910
F0.0009156599922775663
tp1911
a(S'os'
p1912
F0.0009156599922775663
tp1913
a(S'computers'
p1914
F0.0009156599922775663
tp1915
a(S'mouse'
p1916
F0.0009046279441778366
tp1917
a(S'port'
p1918
F0.0009046279441778366
tp1919
a(S'bbs'
p1920
F0.0009046279441778366
tp1921
a(S'bad'
p1922
F0.0008935958960781069
tp1923
a(S'having'
p1924
F0.0008825638479783771
tp1925
a(S'faster'
p1926
F0.0008825638479783771
tp1927
a(S'bought'
p1928
F0.0008825638479783771
tp1929
a(S'looking'
p1930
F0.0008715317998786475
tp1931
a(g1162
F0.0008715317998786475
tp1932
a(S'lot'
p1933
F0.0008715317998786475
tp1934
a(S'fine'
p1935
F0.0008715317998786475
tp1936
a(S'rom'
p1937
F0.0008715317998786475
tp1938
a(S'slot'
p1939
F0.0008604997517789178
tp1940
a(S'hours'
p1941
F0.0008604997517789178
tp1942
a(S'probably'
p1943
F0.0008604997517789178
tp1944
a(S'add'
p1945
F0.0008604997517789178
tp1946
a(S'difference'
p1947
F0.0008494677036791881
tp1948
a(S'order'
p1949
F0.0008384356555794583
tp1950
a(S'hi'
p1951
F0.0008384356555794583
tp1952
a(S'chips'
p1953
F0.0008384356555794583
tp1954
a(S'advance'
p1955
F0.0008274036074797286
tp1956
a(S'little'
p1957
F0.0008274036074797286
tp1958
a(S'keywords'
p1959
F0.0008163715593799989
tp1960
a(S'post'
p1961
F0.0008163715593799989
tp1962
a(S'each'
p1963
F0.0008163715593799989
tp1964
a(S'turn'
p1965
F0.0008163715593799989
tp1966
a(S'anything'
p1967
F0.0008053395112802692
tp1968
a(S'send'
p1969
F0.0008053395112802692
tp1970
a(S'try'
p1971
F0.0008053395112802692
tp1972
a(S'standard'
p1973
F0.0008053395112802692
tp1974
a(S'ibm'
p1975
F0.0008053395112802692
tp1976
a(S'processor'
p1977
F0.0008053395112802692
tp1978
a(S'fast'
p1979
F0.0008053395112802692
tp1980
aa(lp1981
(g430
F0.04242942016603951
tp1982
a(g12
F0.008967176871857413
tp1983
a(S'window'
p1984
F0.006704187508559578
tp1985
a(S'use'
p1986
F0.005549867285782296
tp1987
a(S'file'
p1988
F0.005184658627728467
tp1989
a(S'server'
p1990
F0.0041738132349009045
tp1991
a(S'program'
p1992
F0.0035607844160248344
tp1993
a(S'motif'
p1994
F0.0032999210888435275
tp1995
a(S'using'
p1996
F0.0032086189243300703
tp1997
a(S'available'
p1998
F0.002947755597148764
tp1999
a(S'xr'
p2000
F0.002921669264430633
tp2001
a(S'widget'
p2002
F0.0029021045148920352
tp2003
a(S'set'
p2004
F0.002732543352224186
tp2005
a(S'windows'
p2006
F0.0026999354363265228
tp2007
a(S'display'
p2008
F0.0025890685222744675
tp2009
a(g474
F0.0025368958568382062
tp2010
a(S'sun'
p2011
F0.002523852690479141
tp2012
a(S'application'
p2013
F0.002523852690479141
tp2014
a(S'problem'
p2015
F0.0024912447745814776
tp2016
a(S'r'
p2017
F0.0024912447745814776
tp2018
a(S'system'
p2019
F0.0024455936923247486
tp2020
a(S'email'
p2021
F0.002419507359606618
tp2022
a(S'version'
p2023
F0.002419507359606618
tp2024
a(S'code'
p2025
F0.0023347267782726933
tp2026
a(S'information'
p2027
F0.002321683611913628
tp2028
a(S'know'
p2029
F0.002321683611913628
tp2030
a(S'thanks'
p2031
F0.0022955972791954974
tp2032
a(S'xterm'
p2033
F0.0022369030305797034
tp2034
a(S'running'
p2035
F0.0022303814474001708
tp2036
a(g494
F0.00210647136698905
tp2037
a(S'help'
p2038
F0.0020999497838095176
tp2039
a(S'run'
p2040
F0.0020673418679118542
tp2041
a(S'files'
p2042
F0.0020412555351937236
tp2043
a(S'work'
p2044
F0.002034733952014191
tp2045
a(S'software'
p2046
F0.0020282123688346583
tp2047
a(S'entry'
p2048
F0.002015169202475593
tp2049
a(S'need'
p2050
F0.0019695181202188643
tp2051
a(S'want'
p2052
F0.0018456080398077438
tp2053
a(S'time'
p2054
F0.0018260432902691458
tp2055
a(S'distribution'
p2056
F0.0018130001239100805
tp2057
a(S'new'
p2058
F0.0018130001239100805
tp2059
a(S'please'
p2060
F0.0018130001239100805
tp2061
a(S'way'
p2062
F0.0017803922080124172
tp2063
a(S'source'
p2064
F0.0017803922080124172
tp2065
a(S'manager'
p2066
F0.0017738706248328845
tp2067
a(S'under'
p2068
F0.0017738706248328845
tp2069
a(S'color'
p2070
F0.0017738706248328845
tp2071
a(S'make'
p2072
F0.0017608274584738192
tp2073
a(S'see'
p2074
F0.0017543058752942865
tp2075
a(S'support'
p2076
F0.001741262708935221
tp2077
a(S'used'
p2078
F0.0017151763762170904
tp2079
a(S'open'
p2080
F0.0016043094621650351
tp2081
a(S'name'
p2082
F0.0015977878789855025
tp2083
a(S'look'
p2084
F0.0015912662958059698
tp2085
a(S'same'
p2086
F0.0015847447126264372
tp2087
a(S'user'
p2088
F0.0015717015462673718
tp2089
a(S'line'
p2090
F0.0015586583799083065
tp2091
a(S'error'
p2092
F0.0015521367967287739
tp2093
a(S'openwindows'
p2094
F0.0015521367967287739
tp2095
a(S'following'
p2096
F0.0015130072976515779
tp2097
a(S'programs'
p2098
F0.0015130072976515779
tp2099
a(S'include'
p2100
F0.0015064857144720452
tp2101
a(S'number'
p2102
F0.001473877798574382
tp2103
a(S'anyone'
p2104
F0.001454313049035784
tp2105
a(S'first'
p2106
F0.0014282267163176533
tp2107
a(S'find'
p2108
F0.0014086619667790553
tp2109
a(S'fax'
p2110
F0.0013825756340609247
tp2111
a(S'list'
p2112
F0.0013695324677018594
tp2113
a(S'widgets'
p2114
F0.0013434461349837287
tp2115
a(S'ftp'
p2116
F0.001336924551804196
tp2117
a(S'applications'
p2118
F0.0012847518863679348
tp2119
a(S'screen'
p2120
F0.0012717087200088694
tp2121
a(S'memory'
p2122
F0.0012651871368293368
tp2123
a(S'text'
p2124
F0.0012456223872907388
tp2125
a(S'font'
p2126
F0.0012325792209316733
tp2127
a(S'output'
p2128
F0.0012260576377521406
tp2129
a(S'mouse'
p2130
F0.0012260576377521406
tp2131
a(S'systems'
p2132
F0.001219536054572608
tp2133
a(S'send'
p2134
F0.0012064928882135426
tp2135
a(S'info'
p2136
F0.0011934497218544773
tp2137
a(S'size'
p2138
F0.0011869281386749446
tp2139
a(S'xlib'
p2140
F0.001180406555495412
tp2141
a(S'try'
p2142
F0.001180406555495412
tp2143
a(S'xt'
p2144
F0.001180406555495412
tp2145
a(S'data'
p2146
F0.0011738849723158793
tp2147
a(S'graphics'
p2148
F0.001160841805956814
tp2149
a(S'n'
p2150
F0.001160841805956814
tp2151
a(S'xview'
p2152
F0.0011543202227772813
tp2153
a(S'unix'
p2154
F0.001141277056418216
tp2155
a(S'each'
p2156
F0.0011347554732386834
tp2157
a(S'client'
p2158
F0.001121712306879618
tp2159
a(S'clients'
p2160
F0.0011086691405205527
tp2161
a(S'resource'
p2162
F0.00110214755734102
tp2163
a(S'type'
p2164
F0.001063018058263824
tp2165
a(S'fonts'
p2166
F0.001063018058263824
tp2167
a(S'bit'
p2168
F0.0010499748919047588
tp2169
a(S'read'
p2170
F0.0010434533087252261
tp2171
a(S'example'
p2172
F0.0010369317255456935
tp2173
a(S'machine'
p2174
F0.0010369317255456935
tp2175
a(g1162
F0.0010369317255456935
tp2176
a(S'well'
p2177
F0.0010304101423661608
tp2178
a(g811
F0.0010304101423661608
tp2179
a(S'something'
p2180
F0.0010173669760070955
tp2181
a(S'function'
p2182
F0.0010108453928275628
tp2183
a(S'over'
p2184
F0.0010043238096480302
tp2185
a(g414
F0.0009978022264684975
tp2186
a(S'several'
p2187
F0.0009978022264684975
tp2188
a(S'visual'
p2189
F0.0009912806432889648
tp2190
a(S'section'
p2191
F0.0009847590601094322
tp2192
a(S'before'
p2193
F0.0009847590601094322
tp2194
a(S'looking'
p2195
F0.0009847590601094322
tp2196
a(S'char'
p2197
F0.0009782374769298995
tp2198
a(S'problems'
p2199
F0.0009782374769298995
tp2200
a(S'int'
p2201
F0.0009717158937503668
tp2202
a(S'here'
p2203
F0.0009651943105708342
tp2204
a(S'etc'
p2205
F0.0009651943105708342
tp2206
a(S'postscript'
p2207
F0.0009651943105708342
tp2208
a(S'build'
p2209
F0.0009651943105708342
tp2210
a(S'world'
p2211
F0.0009586727273913015
tp2212
a(S'interface'
p2213
F0.0009586727273913015
tp2214
a(S'default'
p2215
F0.0009586727273913015
tp2216
a(S'network'
p2217
F0.0009521511442117689
tp2218
a(S'entries'
p2219
F0.0009456295610322362
tp2220
a(S'found'
p2221
F0.0009391079778527035
tp2222
a(S'start'
p2223
F0.0009391079778527035
tp2224
a(S'event'
p2225
F0.0009325863946731709
tp2226
a(S'sure'
p2227
F0.0009325863946731709
tp2228
a(S'standard'
p2229
F0.0009260648114936382
tp2230
a(S'another'
p2231
F0.0009260648114936382
tp2232
a(S'return'
p2233
F0.0009260648114936382
tp2234
a(S'both'
p2235
F0.0009260648114936382
tp2236
a(S'part'
p2237
F0.0009260648114936382
tp2238
a(S'case'
p2239
F0.0009260648114936382
tp2240
a(S'call'
p2241
F0.0009195432283141056
tp2242
a(S'mail'
p2243
F0.0009195432283141056
tp2244
a(S'note'
p2245
F0.0009130216451345729
tp2246
a(S'mit'
p2247
F0.0009065000619550402
tp2248
a(S'current'
p2249
F0.0008934568955959749
tp2250
a(S'xv'
p2251
F0.0008934568955959749
tp2252
a(S'via'
p2253
F0.0008869353124164423
tp2254
a(S'directory'
p2255
F0.0008869353124164423
tp2256
a(S'question'
p2257
F0.0008869353124164423
tp2258
a(S'release'
p2259
F0.0008804137292369096
tp2260
a(S'input'
p2261
F0.0008804137292369096
tp2262
a(S'keywords'
p2263
F0.0008804137292369096
tp2264
a(S'write'
p2265
F0.0008804137292369096
tp2266
a(S'change'
p2267
F0.0008738921460573769
tp2268
a(S'oname'
p2269
F0.0008673705628778442
tp2270
a(S'people'
p2271
F0.0008543273965187789
tp2272
a(S'possible'
p2273
F0.0008478058133392462
tp2274
a(S'right'
p2275
F0.0008478058133392462
tp2276
a(S'free'
p2277
F0.0008412842301597135
tp2278
a(S'without'
p2279
F0.0008412842301597135
tp2280
a(S'toolkit'
p2281
F0.0008347626469801809
tp2282
a(S'works'
p2283
F0.0008347626469801809
tp2284
a(S'value'
p2285
F0.0008347626469801809
tp2286
a(S'faq'
p2287
F0.0008347626469801809
tp2288
a(S'hi'
p2289
F0.0008347626469801809
tp2290
a(S'things'
p2291
F0.0008282410638006482
tp2292
a(S'colormap'
p2293
F0.0008282410638006482
tp2294
a(S'those'
p2295
F0.0008282410638006482
tp2296
a(S'environment'
p2297
F0.0008217194806211155
tp2298
a(S'pc'
p2299
F0.0008217194806211155
tp2300
a(S'resources'
p2301
F0.0008086763142620502
tp2302
a(S'done'
p2303
F0.0008086763142620502
tp2304
a(S'cursor'
p2305
F0.0008086763142620502
tp2306
a(S'rules'
p2307
F0.0008021547310825176
tp2308
a(S'command'
p2309
F0.0008021547310825176
tp2310
a(S'put'
p2311
F0.0008021547310825176
tp2312
a(S'create'
p2313
F0.0008021547310825176
tp2314
a(S'xfree'
p2315
F0.0008021547310825176
tp2316
a(S'inc'
p2317
F0.0007956331479029849
tp2318
a(S'sunos'
p2319
F0.0007956331479029849
tp2320
a(S'button'
p2321
F0.0007891115647234522
tp2322
a(S'think'
p2323
F0.0007891115647234522
tp2324
a(S'give'
p2325
F0.0007825899815439196
tp2326
a(S'keyboard'
p2327
F0.0007825899815439196
tp2328
a(S'xdm'
p2329
F0.0007825899815439196
tp2330
a(S'multiple'
p2331
F0.0007825899815439196
tp2332
a(S'users'
p2333
F0.0007760683983643869
tp2334
a(S'echo'
p2335
F0.0007760683983643869
tp2336
a(S'shell'
p2337
F0.0007760683983643869
tp2338
a(S'null'
p2339
F0.0007695468151848543
tp2340
a(S'dos'
p2341
F0.0007695468151848543
tp2342
a(S'different'
p2343
F0.0007695468151848543
tp2344
a(S'trying'
p2345
F0.0007630252320053216
tp2346
a(S'uses'
p2347
F0.0007630252320053216
tp2348
a(S'space'
p2349
F0.0007565036488257889
tp2350
a(S'group'
p2351
F0.0007565036488257889
tp2352
a(S'good'
p2353
F0.0007565036488257889
tp2354
a(S'events'
p2355
F0.0007565036488257889
tp2356
a(S'including'
p2357
F0.0007499820656462563
tp2358
a(S'called'
p2359
F0.0007499820656462563
tp2360
a(S'format'
p2361
F0.0007434604824667236
tp2362
a(S'computer'
p2363
F0.0007434604824667236
tp2364
a(S'library'
p2365
F0.0007434604824667236
tp2366
a(S'copy'
p2367
F0.0007434604824667236
tp2368
a(S'title'
p2369
F0.000736938899287191
tp2370
a(S'programming'
p2371
F0.0007304173161076583
tp2372
a(S'advance'
p2373
F0.0007304173161076583
tp2374
aa(lp2375
(g12
F0.03952432532091908
tp2376
a(S'sale'
p2377
F0.010820216173860938
tp2378
a(S'new'
p2379
F0.006095734138415801
tp2380
a(S'email'
p2381
F0.005116268350579613
tp2382
a(S'distribution'
p2383
F0.005035606462169574
tp2384
a(S'please'
p2385
F0.004332695720310664
tp2386
a(S'shipping'
p2387
F0.0038487243898504297
tp2388
a(S'offer'
p2389
F0.0038256781360189902
tp2390
a(S'price'
p2391
F0.0035606462169574336
tp2392
a(S'drive'
p2393
F0.003468461201631675
tp2394
a(S'condition'
p2395
F0.00305362863266576
tp2396
a(S'asking'
p2397
F0.002915351109677122
tp2398
a(S'system'
p2399
F0.002754027332857044
tp2400
a(S'usa'
p2401
F0.0027309810790256046
tp2402
a(S'st'
p2403
F0.0027079348251941647
tp2404
a(S'interested'
p2405
F0.002684888571362725
tp2406
a(S'good'
p2407
F0.0026618423175312853
tp2408
a(S'used'
p2409
F0.0026503191906155654
tp2410
a(g430
F0.002615749809868406
tp2411
a(S'each'
p2412
F0.002615749809868406
tp2413
a(S'dos'
p2414
F0.002604226682952686
tp2415
a(S'sell'
p2416
F0.0025120416676269273
tp2417
a(S'card'
p2418
F0.0023968103984697287
tp2419
a(S'software'
p2420
F0.0022815791293125305
tp2421
a(S'call'
p2422
F0.002131778479408172
tp2423
a(S'best'
p2424
F0.0020972090986610126
tp2425
a(S'list'
p2426
F0.0020972090986610126
tp2427
a(S'make'
p2428
F0.002074162844829573
tp2429
a(g1144
F0.002016547210250974
tp2430
a(g494
F0.001993500956419534
tp2431
a(S'original'
p2432
F0.001993500956419534
tp2433
a(S'thanks'
p2434
F0.0019589315756723745
tp2435
a(S'send'
p2436
F0.0018667465603466158
tp2437
a(S'cover'
p2438
F0.0018552234334308958
tp2439
a(S'games'
p2440
F0.0018091309257680164
tp2441
a(S'excellent'
p2442
F0.0017976077988522965
tp2443
a(S'use'
p2444
F0.001763038418105137
tp2445
a(S'power'
p2446
F0.0017284690373579774
tp2447
a(S'cd'
p2448
F0.0017284690373579774
tp2449
a(S'hard'
p2450
F0.0017284690373579774
tp2451
a(S'appears'
p2452
F0.0017169459104422577
tp2453
a(S'computer'
p2454
F0.0017054227835265378
tp2455
a(S'art'
p2456
F0.001682376529695098
tp2457
a(S'know'
p2458
F0.0016362840220322187
tp2459
a(S'following'
p2460
F0.0016247608951164988
tp2461
a(S'old'
p2462
F0.001613237768200779
tp2463
a(S'great'
p2464
F0.001601714641285059
tp2465
a(S'forsale'
p2466
F0.0015901915143693394
tp2467
a(S'car'
p2468
F0.00153257587979074
tp2469
a(S'disk'
p2470
F0.00153257587979074
tp2471
a(g474
F0.00153257587979074
tp2472
a(S'want'
p2473
F0.00152105275287502
tp2474
a(S'pc'
p2475
F0.00152105275287502
tp2476
a(S'box'
p2477
F0.0014980064990435804
tp2478
a(S'comics'
p2479
F0.0014749602452121407
tp2480
a(S'wolverine'
p2481
F0.0014749602452121407
tp2482
a(S'phone'
p2483
F0.001451913991380701
tp2484
a(S'keywords'
p2485
F0.0014403908644649813
tp2486
a(S'wanted'
p2487
F0.0014403908644649813
tp2488
a(S'etc'
p2489
F0.0014288677375492614
tp2490
a(S'looking'
p2491
F0.0014288677375492614
tp2492
a(S'book'
p2493
F0.0014288677375492614
tp2494
a(g990
F0.0014058214837178217
tp2495
a(S'need'
p2496
F0.0014058214837178217
tp2497
a(S'included'
p2498
F0.0014058214837178217
tp2499
a(S'package'
p2500
F0.0013942983568021017
tp2501
a(S'mb'
p2502
F0.0013482058491392224
tp2503
a(S'world'
p2504
F0.0013366827222235026
tp2505
a(S'time'
p2506
F0.0013251595953077827
tp2507
a(S'includes'
p2508
F0.0013251595953077827
tp2509
a(S'well'
p2510
F0.0012790670876449033
tp2511
a(S'meg'
p2512
F0.0012790670876449033
tp2513
a(S'manual'
p2514
F0.0012790670876449033
tp2515
a(S'hulk'
p2516
F0.0012790670876449033
tp2517
a(S'monitor'
p2518
F0.0012675439607291834
tp2519
a(S'copies'
p2520
F0.0012560208338134636
tp2521
a(S'vs'
p2522
F0.0012444977068977437
tp2523
a(S'game'
p2524
F0.001232974579982024
tp2525
a(S'mail'
p2526
F0.001232974579982024
tp2527
a(S'modem'
p2528
F0.001221451453066304
tp2529
a(S'both'
p2530
F0.0012099283261505843
tp2531
a(g811
F0.0012099283261505843
tp2532
a(S'model'
p2533
F0.0012099283261505843
tp2534
a(S'never'
p2535
F0.0011984051992348643
tp2536
a(S'printer'
p2537
F0.0011868820723191446
tp2538
a(S'plus'
p2539
F0.0011868820723191446
tp2540
a(S'selling'
p2541
F0.0011753589454034246
tp2542
a(S'tape'
p2543
F0.001163835818487705
tp2544
a(S'items'
p2545
F0.001163835818487705
tp2546
a(S'contact'
p2547
F0.001152312691571985
tp2548
a(S'disks'
p2549
F0.0011407895646562652
tp2550
a(S'still'
p2551
F0.0011292664377405453
tp2552
a(S'ii'
p2553
F0.0011292664377405453
tp2554
a(S'copy'
p2555
F0.0011177433108248253
tp2556
a(S'video'
p2557
F0.0011062201839091056
tp2558
a(S'brand'
p2559
F0.0011062201839091056
tp2560
a(S'reply'
p2561
F0.0011062201839091056
tp2562
a(S'case'
p2563
F0.0011062201839091056
tp2564
a(S'work'
p2565
F0.0010946970569933856
tp2566
a(S'first'
p2567
F0.0010946970569933856
tp2568
a(S'black'
p2569
F0.0010946970569933856
tp2570
a(S'ibm'
p2571
F0.001083173930077666
tp2572
a(S'back'
p2573
F0.001083173930077666
tp2574
a(S'trade'
p2575
F0.001083173930077666
tp2576
a(S'na'
p2577
F0.001071650803161946
tp2578
a(S'windows'
p2579
F0.0010601276762462262
tp2580
a(S'floppy'
p2581
F0.0010486045493305063
tp2582
a(S'scsi'
p2583
F0.0010486045493305063
tp2584
a(S'annual'
p2585
F0.0010486045493305063
tp2586
a(S'internet'
p2587
F0.0010370814224147866
tp2588
a(S'ram'
p2589
F0.0010370814224147866
tp2590
a(S'offers'
p2591
F0.0010370814224147866
tp2592
a(S'obo'
p2593
F0.0010255582954990666
tp2594
a(S'stereo'
p2595
F0.0010255582954990666
tp2596
a(g656
F0.0010255582954990666
tp2597
a(S'here'
p2598
F0.001002512041667627
tp2599
a(S'above'
p2600
F0.001002512041667627
tp2601
a(S'books'
p2602
F0.000990988914751907
tp2603
a(S'manuals'
p2604
F0.0009794657878361872
tp2605
a(S'pay'
p2606
F0.0009794657878361872
tp2607
a(S'spiderman'
p2608
F0.0009794657878361872
tp2609
a(S'address'
p2610
F0.0009679426609204674
tp2611
a(S'cable'
p2612
F0.0009679426609204674
tp2613
a(S'those'
p2614
F0.0009679426609204674
tp2615
a(S'year'
p2616
F0.0009448964070890277
tp2617
a(S'include'
p2618
F0.0009448964070890277
tp2619
a(S'home'
p2620
F0.0009333732801733079
tp2621
a(S'guide'
p2622
F0.0009218501532575879
tp2623
a(S'controller'
p2624
F0.0009218501532575879
tp2625
a(S'years'
p2626
F0.0009103270263418681
tp2627
a(S'over'
p2628
F0.0009103270263418681
tp2629
a(S'paid'
p2630
F0.0008988038994261482
tp2631
a(S'sony'
p2632
F0.0008988038994261482
tp2633
a(S'working'
p2634
F0.0008872807725104284
tp2635
a(S'set'
p2636
F0.0008872807725104284
tp2637
a(S'stuff'
p2638
F0.0008872807725104284
tp2639
a(S'ghost'
p2640
F0.0008872807725104284
tp2641
a(S'liefeld'
p2642
F0.0008872807725104284
tp2643
a(S'machine'
p2644
F0.0008757576455947086
tp2645
a(S'high'
p2646
F0.0008757576455947086
tp2647
a(S'mm'
p2648
F0.0008757576455947086
tp2649
a(S'sabretooth'
p2650
F0.0008642345186789887
tp2651
a(g414
F0.0008642345186789887
tp2652
a(S'sold'
p2653
F0.0008642345186789887
tp2654
a(S'full'
p2655
F0.0008527113917632689
tp2656
a(S'free'
p2657
F0.000841188264847549
tp2658
a(S'drives'
p2659
F0.000841188264847549
tp2660
a(S'issue'
p2661
F0.0008181420110161094
tp2662
a(S'works'
p2663
F0.0008181420110161094
tp2664
a(S'rider'
p2665
F0.0008181420110161094
tp2666
a(S'cheap'
p2667
F0.0008181420110161094
tp2668
a(S'available'
p2669
F0.0008066188841003895
tp2670
a(S'unix'
p2671
F0.0007950957571846697
tp2672
a(S'comes'
p2673
F0.0007950957571846697
tp2674
a(S'keyboard'
p2675
F0.0007950957571846697
tp2676
a(S'man'
p2677
F0.0007950957571846697
tp2678
a(S'buy'
p2679
F0.0007950957571846697
tp2680
a(S'serial'
p2681
F0.0007950957571846697
tp2682
a(S'take'
p2683
F0.0007835726302689498
tp2684
a(S'prices'
p2685
F0.0007835726302689498
tp2686
a(S'fax'
p2687
F0.0007835726302689498
tp2688
a(S'last'
p2689
F0.0007835726302689498
tp2690
a(S'mhz'
p2691
F0.0007720495033532299
tp2692
a(S'memory'
p2693
F0.0007720495033532299
tp2694
a(S'app'
p2695
F0.0007720495033532299
tp2696
a(S'unit'
p2697
F0.0007490032495217902
tp2698
a(S'bagged'
p2699
F0.0007490032495217902
tp2700
a(S'xforce'
p2701
F0.0007490032495217902
tp2702
a(S'sound'
p2703
F0.0007490032495217902
tp2704
a(S'including'
p2705
F0.0007490032495217902
tp2706
a(S'external'
p2707
F0.0007374801226060704
tp2708
a(S'around'
p2709
F0.0007259569956903505
tp2710
a(S'color'
p2711
F0.0007259569956903505
tp2712
a(S'hobgoblin'
p2713
F0.0007144338687746307
tp2714
a(S'bought'
p2715
F0.0007144338687746307
tp2716
a(S'complete'
p2717
F0.0007029107418589108
tp2718
a(S'mint'
p2719
F0.0007029107418589108
tp2720
a(S'edition'
p2721
F0.0007029107418589108
tp2722
a(S'less'
p2723
F0.0007029107418589108
tp2724
a(S'board'
p2725
F0.0007029107418589108
tp2726
a(S'digital'
p2727
F0.0007029107418589108
tp2728
a(S'really'
p2729
F0.000691387614943191
tp2730
a(S'size'
p2731
F0.000691387614943191
tp2732
a(S'bit'
p2733
F0.000691387614943191
tp2734
a(S'perfect'
p2735
F0.0006798644880274712
tp2736
a(S'go'
p2737
F0.0006798644880274712
tp2738
a(S'summary'
p2739
F0.0006798644880274712
tp2740
a(S'people'
p2741
F0.0006683413611117513
tp2742
a(S'number'
p2743
F0.0006683413611117513
tp2744
a(S'camera'
p2745
F0.0006683413611117513
tp2746
a(S'control'
p2747
F0.0006683413611117513
tp2748
a(S'left'
p2749
F0.0006683413611117513
tp2750
a(S'deal'
p2751
F0.0006683413611117513
tp2752
a(g214
F0.0006683413611117513
tp2753
a(S'service'
p2754
F0.0006568182341960315
tp2755
a(S'way'
p2756
F0.0006568182341960315
tp2757
a(S'three'
p2758
F0.0006568182341960315
tp2759
a(S'willing'
p2760
F0.0006568182341960315
tp2761
a(g2017
F0.0006568182341960315
tp2762
a(S'version'
p2763
F0.0006568182341960315
tp2764
aa(lp2765
(S'car'
p2766
F0.013598666947578096
tp2767
a(g12
F0.0063971193809733585
tp2768
a(S'cars'
p2769
F0.0052862423627204995
tp2770
a(g656
F0.004127482714370535
tp2771
a(S'good'
p2772
F0.0037635747256325298
tp2773
a(S'know'
p2774
F0.003725268621554845
tp2775
a(S'new'
p2776
F0.003591197257282948
tp2777
a(S'engine'
p2778
F0.0035624676792246845
tp2779
a(S'think'
p2780
F0.0034188197889333666
tp2781
a(S'distribution'
p2782
F0.0032177127425255213
tp2783
a(S'time'
p2784
F0.0026143916033019863
tp2785
a(S'well'
p2786
F0.002461167186991247
tp2787
a(S'really'
p2788
F0.0024228610829135624
tp2789
a(S'oil'
p2790
F0.0023270958227193505
tp2791
a(S'ford'
p2792
F0.002307942770680508
tp2793
a(S'anyone'
p2794
F0.0022409070885445596
tp2795
a(S'people'
p2796
F0.002221754036505717
tp2797
a(g990
F0.002212177510486296
tp2798
a(S'dealer'
p2799
F0.0021547183543697687
tp2800
a(S'here'
p2801
F0.0020781061462143992
tp2802
a(S'used'
p2803
F0.0020781061462143992
tp2804
a(S'make'
p2805
F0.0020398000421367143
tp2806
a(S'right'
p2807
F0.0020302235161172933
tp2808
a(S'speed'
p2809
F0.0020206469900978723
tp2810
a(S'price'
p2811
F0.0019823408860201873
tp2812
a(S'drive'
p2813
F0.0019727643600007663
tp2814
a(S'back'
p2815
F0.0019248817299036601
tp2816
a(S'same'
p2817
F0.0018961521518453966
tp2818
a(S'problem'
p2819
F0.0018769990998065542
tp2820
a(S'go'
p2821
F0.001867422573787133
tp2822
a(S'usa'
p2823
F0.0018482695217482907
tp2824
a(S'want'
p2825
F0.0018099634176706057
tp2826
a(S'better'
p2827
F0.0017908103656317635
tp2828
a(S'over'
p2829
F0.0017908103656317635
tp2830
a(S'still'
p2831
F0.0017812338396123422
tp2832
a(S'year'
p2833
F0.0017620807875734998
tp2834
a(S'use'
p2835
F0.0017525042615540787
tp2836
a(S'way'
p2837
F0.0017333512095152363
tp2838
a(S'those'
p2839
F0.0017046216314569726
tp2840
a(S'around'
p2841
F0.0016663155273792878
tp2842
a(S'buy'
p2843
F0.0016375859493210243
tp2844
a(S'see'
p2845
F0.0016280094233016031
tp2846
a(S'miles'
p2847
F0.0015609737411656547
tp2848
a(S'insurance'
p2849
F0.0015035145850491275
tp2850
a(S'years'
p2851
F0.0014939380590297065
tp2852
a(S'thanks'
p2853
F0.0014939380590297065
tp2854
a(S'first'
p2855
F0.001474785006990864
tp2856
a(S'driving'
p2857
F0.0014652084809714428
tp2858
a(S'sure'
p2859
F0.0014556319549520215
tp2860
a(S'few'
p2861
F0.0014460554289326005
tp2862
a(S'power'
p2863
F0.0014173258508743368
tp2864
a(S'auto'
p2865
F0.0014077493248549156
tp2866
a(S'take'
p2867
F0.0013981727988354945
tp2868
a(S'never'
p2869
F0.0013981727988354945
tp2870
a(S'radar'
p2871
F0.0013598666947578096
tp2872
a(S'put'
p2873
F0.0013502901687383884
tp2874
a(S'please'
p2875
F0.0013502901687383884
tp2876
a(S'going'
p2877
F0.0013407136427189673
tp2878
a(S'front'
p2879
F0.0013407136427189673
tp2880
a(S'need'
p2881
F0.0013407136427189673
tp2882
a(S'look'
p2883
F0.0013215605906801249
tp2884
a(S'mustang'
p2885
F0.0013215605906801249
tp2886
a(S'looking'
p2887
F0.0013119840646607036
tp2888
a(S'little'
p2889
F0.0013024075386412824
tp2890
a(S'last'
p2891
F0.0013024075386412824
tp2892
a(S'best'
p2893
F0.0012832544866024401
tp2894
a(S'clutch'
p2895
F0.0012832544866024401
tp2896
a(S'something'
p2897
F0.0012832544866024401
tp2898
a(S'another'
p2899
F0.001273677960583019
tp2900
a(S'work'
p2901
F0.0012641014345635977
tp2902
a(S'someone'
p2903
F0.0012641014345635977
tp2904
a(S'without'
p2905
F0.0012641014345635977
tp2906
a(S'thing'
p2907
F0.0012545249085441764
tp2908
a(S'heard'
p2909
F0.0012449483825247554
tp2910
a(S'down'
p2911
F0.0012449483825247554
tp2912
a(S'under'
p2913
F0.0012449483825247554
tp2914
a(S'lot'
p2915
F0.0012353718565053342
tp2916
a(g1162
F0.0012162188044664917
tp2917
a(S'both'
p2918
F0.0012066422784470705
tp2919
a(S'question'
p2920
F0.0012066422784470705
tp2921
a(S'road'
p2922
F0.0011874892264082282
tp2923
a(S'honda'
p2924
F0.001177912700388807
tp2925
a(S'old'
p2926
F0.001177912700388807
tp2927
a(S'manual'
p2928
F0.001177912700388807
tp2929
a(S'enough'
p2930
F0.0011683361743693858
tp2931
a(S'find'
p2932
F0.0011683361743693858
tp2933
a(S'tires'
p2934
F0.0011491831223305433
tp2935
a(S'toyota'
p2936
F0.0011396065963111223
tp2937
a(S'before'
p2938
F0.0011396065963111223
tp2939
a(S'etc'
p2940
F0.001130030070291701
tp2941
a(S'mph'
p2942
F0.0011108770182528586
tp2943
a(S'point'
p2944
F0.0011013004922334373
tp2945
a(S'real'
p2946
F0.001082147440194595
tp2947
a(S'anything'
p2948
F0.0010725709141751738
tp2949
a(S'brake'
p2950
F0.0010725709141751738
tp2951
a(S'change'
p2952
F0.0010629943881557526
tp2953
a(S'made'
p2954
F0.0010629943881557526
tp2955
a(S'being'
p2956
F0.0010534178621363314
tp2957
a(S'big'
p2958
F0.0010534178621363314
tp2959
a(S'left'
p2960
F0.0010438413361169101
tp2961
a(S'model'
p2962
F0.0010438413361169101
tp2963
a(S'world'
p2964
F0.001034264810097489
tp2965
a(S'high'
p2966
F0.0010246882840780679
tp2967
a(S'system'
p2968
F0.0010246882840780679
tp2969
a(S'email'
p2970
F0.0010246882840780679
tp2971
a(S'long'
p2972
F0.0010055352320392254
tp2973
a(S'things'
p2974
F0.0009959587060198042
tp2975
a(S'through'
p2976
F0.0009959587060198042
tp2977
a(S'list'
p2978
F0.0009959587060198042
tp2979
a(S'bought'
p2980
F0.0009959587060198042
tp2981
a(S'probably'
p2982
F0.0009863821800003831
tp2983
a(S'saturn'
p2984
F0.0009863821800003831
tp2985
a(S'bad'
p2986
F0.000976805653980962
tp2987
a(S'top'
p2988
F0.000976805653980962
tp2989
a(S'keywords'
p2990
F0.0009576526019421194
tp2991
a(S'between'
p2992
F0.0009576526019421194
tp2993
a(S'problems'
p2994
F0.0009576526019421194
tp2995
a(S'quite'
p2996
F0.0009480760759226983
tp2997
a(S'article'
p2998
F0.0009480760759226983
tp2999
a(S'great'
p3000
F0.0009480760759226983
tp3001
a(S'rear'
p3002
F0.0009384995499032771
tp3003
a(S'though'
p3004
F0.0009384995499032771
tp3005
a(S'fast'
p3006
F0.0009384995499032771
tp3007
a(S'getting'
p3008
F0.0009384995499032771
tp3009
a(S'sho'
p3010
F0.0009289230238838558
tp3011
a(S'small'
p3012
F0.0009289230238838558
tp3013
a(S'come'
p3014
F0.0009289230238838558
tp3015
a(S'help'
p3016
F0.0009193464978644347
tp3017
a(S'keep'
p3018
F0.0009193464978644347
tp3019
a(S'actually'
p3020
F0.0009097699718450135
tp3021
a(S'believe'
p3022
F0.0009097699718450135
tp3023
a(S'sc'
p3024
F0.0009001934458255924
tp3025
a(S'money'
p3026
F0.0009001934458255924
tp3027
a(S'less'
p3028
F0.0008906169198061711
tp3029
a(S'read'
p3030
F0.0008906169198061711
tp3031
a(S'different'
p3032
F0.0008906169198061711
tp3033
a(S'nice'
p3034
F0.0008810403937867499
tp3035
a(S'transmission'
p3036
F0.0008714638677673288
tp3037
a(S'engines'
p3038
F0.0008714638677673288
tp3039
a(S'gt'
p3040
F0.0008714638677673288
tp3041
a(S'bmw'
p3042
F0.0008714638677673288
tp3043
a(S'driver'
p3044
F0.0008714638677673288
tp3045
a(S'parts'
p3046
F0.0008714638677673288
tp3047
a(S'service'
p3048
F0.0008618873417479075
tp3049
a(S'buying'
p3050
F0.0008618873417479075
tp3051
a(S'performance'
p3052
F0.0008618873417479075
tp3053
a(S'opinions'
p3054
F0.0008523108157284863
tp3055
a(S'models'
p3056
F0.0008523108157284863
tp3057
a(S'mr'
p3058
F0.0008523108157284863
tp3059
a(S'door'
p3060
F0.0008427342897090652
tp3061
a(g1144
F0.0008427342897090652
tp3062
a(S'wheel'
p3063
F0.0008427342897090652
tp3064
a(S'cost'
p3065
F0.0008427342897090652
tp3066
a(S'pay'
p3067
F0.0008427342897090652
tp3068
a(S'automatic'
p3069
F0.0008427342897090652
tp3070
a(S'hard'
p3071
F0.0008331577636896439
tp3072
a(S'course'
p3073
F0.0008235812376702228
tp3074
a(S'interested'
p3075
F0.0008235812376702228
tp3076
a(S'gas'
p3077
F0.0008235812376702228
tp3078
a(S'always'
p3079
F0.0008140047116508016
tp3080
a(S'next'
p3081
F0.0008140047116508016
tp3082
a(S'air'
p3083
F0.0008140047116508016
tp3084
a(S'pretty'
p3085
F0.0008140047116508016
tp3086
a(S'shift'
p3087
F0.0008140047116508016
tp3088
a(S'feel'
p3089
F0.0008140047116508016
tp3090
a(S'away'
p3091
F0.0008044281856313803
tp3092
a(S'again'
p3093
F0.0007948516596119592
tp3094
a(S'seems'
p3095
F0.0007948516596119592
tp3096
a(S'turbo'
p3097
F0.000785275133592538
tp3098
a(S'side'
p3099
F0.000785275133592538
tp3100
a(S'nissan'
p3101
F0.000785275133592538
tp3102
a(S'went'
p3103
F0.0007756986075731168
tp3104
a(S'seen'
p3105
F0.0007756986075731168
tp3106
a(S'fuel'
p3107
F0.0007661220815536956
tp3108
a(S'check'
p3109
F0.0007661220815536956
tp3110
a(S'kind'
p3111
F0.0007661220815536956
tp3112
a(S'try'
p3113
F0.0007565455555342744
tp3114
a(S'fact'
p3115
F0.0007565455555342744
tp3116
a(S'low'
p3117
F0.0007565455555342744
tp3118
a(S'far'
p3119
F0.0007565455555342744
tp3120
a(S'using'
p3121
F0.0007469690295148532
tp3122
a(S'drivers'
p3123
F0.0007469690295148532
tp3124
a(S'information'
p3125
F0.0007469690295148532
tp3126
a(S'vehicle'
p3127
F0.000737392503495432
tp3128
a(S'maybe'
p3129
F0.000737392503495432
tp3130
a(S'previous'
p3131
F0.0007278159774760108
tp3132
a(S'convertible'
p3133
F0.0007278159774760108
tp3134
a(S'area'
p3135
F0.0007278159774760108
tp3136
a(S'hp'
p3137
F0.0007278159774760108
tp3138
a(S'probe'
p3139
F0.0007278159774760108
tp3140
a(S'deal'
p3141
F0.0007278159774760108
tp3142
a(S'called'
p3143
F0.0007278159774760108
tp3144
a(S'taurus'
p3145
F0.0007182394514565896
tp3146
a(S'lights'
p3147
F0.0007182394514565896
tp3148
a(S'light'
p3149
F0.0007182394514565896
tp3150
a(S'automotive'
p3151
F0.0007086629254371684
tp3152
a(S'thought'
p3153
F0.0007086629254371684
tp3154
a(S'brakes'
p3155
F0.0006990863994177473
tp3156
a(S'mileage'
p3157
F0.0006990863994177473
tp3158
a(S'gear'
p3159
F0.0006990863994177473
tp3160
aa(lp3161
(S'bike'
p3162
F0.008406612365248487
tp3163
a(S'dod'
p3164
F0.007329645855770135
tp3165
a(g12
F0.0053325526197471745
tp3166
a(S'know'
p3167
F0.003481843181129037
tp3168
a(S'ride'
p3169
F0.0031786196007904726
tp3170
a(S'good'
p3171
F0.0030845157310302285
tp3172
a(S'new'
p3173
F0.0028963079915097396
tp3174
a(S'well'
p3175
F0.0028440280638651594
tp3176
a(S'bmw'
p3177
F0.0027812921506916635
tp3178
a(S'go'
p3179
F0.0027708361651627472
tp3180
a(S'time'
p3181
F0.0026871882809314193
tp3182
a(S'riding'
p3183
F0.002676732295402503
tp3184
a(S'right'
p3185
F0.0026662763098735873
tp3186
a(S'back'
p3187
F0.002655820324344671
tp3188
a(S'distribution'
p3189
F0.0025303484979976787
tp3190
a(S'bikes'
p3191
F0.0024048766716506863
tp3192
a(S'think'
p3193
F0.0023525967440061065
tp3194
a(S'motorcycle'
p3195
F0.002331684772948274
tp3196
a(S'over'
p3197
F0.002216668932130198
tp3198
a(S'first'
p3199
F0.0021853009755434497
tp3200
a(S'dog'
p3201
F0.002174844990014534
tp3202
a(S'way'
p3203
F0.0021643890044856177
tp3204
a(S'down'
p3205
F0.0021434770334277857
tp3206
a(S'make'
p3207
F0.0020284611926097095
tp3208
a(S'anyone'
p3209
F0.0019866372504940455
tp3210
a(S'really'
p3211
F0.0019761812649651293
tp3212
a(S'thing'
p3213
F0.001965725279436213
tp3214
a(S'front'
p3215
F0.0019552692939072973
tp3216
a(S'little'
p3217
F0.001882077395204885
tp3218
a(S'see'
p3219
F0.0018716214096759691
tp3220
a(S'need'
p3221
F0.001861165424147053
tp3222
a(S'people'
p3223
F0.001819341482031389
tp3224
a(S'going'
p3225
F0.001819341482031389
tp3226
a(S'helmet'
p3227
F0.001819341482031389
tp3228
a(S'list'
p3229
F0.0017461495833289767
tp3230
a(S'road'
p3231
F0.0017356935978000607
tp3232
a(S'world'
p3233
F0.0016415897280398163
tp3234
a(S'take'
p3235
F0.0016206777569819843
tp3236
a(S'still'
p3237
F0.0016206777569819843
tp3238
a(S'want'
p3239
F0.0015997657859241523
tp3240
a(S'left'
p3241
F0.0015997657859241523
tp3242
a(S'never'
p3243
F0.0015683978293374041
tp3244
a(S'here'
p3245
F0.0015370298727506561
tp3246
a(S'same'
p3247
F0.0015370298727506561
tp3248
a(S'work'
p3249
F0.0015265738872217401
tp3250
a(S'those'
p3251
F0.0015161179016928241
tp3252
a(S'last'
p3253
F0.00147429395957716
tp3254
a(S'something'
p3255
F0.00147429395957716
tp3256
a(S'please'
p3257
F0.001442926002990412
tp3258
a(S'around'
p3259
F0.0014220140319325797
tp3260
a(S'advice'
p3261
F0.0014220140319325797
tp3262
a(S'used'
p3263
F0.0013801900898169157
tp3264
a(S'keep'
p3265
F0.0013801900898169157
tp3266
a(S'few'
p3267
F0.0013801900898169157
tp3268
a(S'sure'
p3269
F0.0013592781187590837
tp3270
a(S'put'
p3271
F0.0013383661477012515
tp3272
a(S'before'
p3273
F0.0013383661477012515
tp3274
a(S'car'
p3275
F0.0013279101621723355
tp3276
a(S'use'
p3277
F0.0013279101621723355
tp3278
a(S'honda'
p3279
F0.0013174541766434195
tp3280
a(S'someone'
p3281
F0.0013174541766434195
tp3282
a(S'being'
p3283
F0.0012860862200566715
tp3284
a(S'rider'
p3285
F0.0012651742489988393
tp3286
a(S'ama'
p3287
F0.0012338062924120913
tp3288
a(S'side'
p3289
F0.0012024383358253431
tp3290
a(S'day'
p3291
F0.0011919823502964271
tp3292
a(S'read'
p3293
F0.0011710703792385951
tp3294
a(S'enough'
p3295
F0.0011501584081807631
tp3296
a(S'anything'
p3297
F0.001118790451594015
tp3298
a(S'help'
p3299
F0.001118790451594015
tp3300
a(S'miles'
p3301
F0.001118790451594015
tp3302
a(S'turn'
p3303
F0.001118790451594015
tp3304
a(S'question'
p3305
F0.001118790451594015
tp3306
a(S'better'
p3307
F0.001097878480536183
tp3308
a(S'look'
p3309
F0.001076966509478351
tp3310
a(S'long'
p3311
F0.001076966509478351
tp3312
a(S'far'
p3313
F0.0010560545384205187
tp3314
a(S'state'
p3315
F0.0010560545384205187
tp3316
a(S'dogs'
p3317
F0.0010455985528916027
tp3318
a(S'both'
p3319
F0.0010455985528916027
tp3320
a(S'oo'
p3321
F0.0010455985528916027
tp3322
a(S'chain'
p3323
F0.0010351425673626867
tp3324
a(S'course'
p3325
F0.0010351425673626867
tp3326
a(S'probably'
p3327
F0.0010351425673626867
tp3328
a(S'getting'
p3329
F0.0010246865818337707
tp3330
a(S'thanks'
p3331
F0.0010246865818337707
tp3332
a(S'looking'
p3333
F0.0010246865818337707
tp3334
a(S'next'
p3335
F0.0010246865818337707
tp3336
a(S'insurance'
p3337
F0.0010246865818337707
tp3338
a(S'buy'
p3339
F0.0010142305963048547
tp3340
a(S'stuff'
p3341
F0.0010037746107759388
tp3342
a(S'yamaha'
p3343
F0.0009933186252470228
tp3344
a(S'years'
p3345
F0.0009828626397181065
tp3346
a(S'great'
p3347
F0.0009828626397181065
tp3348
a(S'another'
p3349
F0.0009828626397181065
tp3350
a(S'rear'
p3351
F0.0009828626397181065
tp3352
a(S'email'
p3353
F0.0009724066541891907
tp3354
a(S'post'
p3355
F0.0009724066541891907
tp3356
a(S'behind'
p3357
F0.0009724066541891907
tp3358
a(S'real'
p3359
F0.0009619506686602745
tp3360
a(S'try'
p3361
F0.0009619506686602745
tp3362
a(S'mike'
p3363
F0.0009619506686602745
tp3364
a(S'etc'
p3365
F0.0009514946831313585
tp3366
a(S'keywords'
p3367
F0.0009514946831313585
tp3368
a(S'lot'
p3369
F0.0009514946831313585
tp3370
a(S'problem'
p3371
F0.0009514946831313585
tp3372
a(S'give'
p3373
F0.0009514946831313585
tp3374
a(S'speed'
p3375
F0.0009410386976024426
tp3376
a(S'made'
p3377
F0.0009410386976024426
tp3378
a(S'drive'
p3379
F0.0009305827120735264
tp3380
a(S'maybe'
p3381
F0.0009305827120735264
tp3382
a(S'through'
p3383
F0.0009305827120735264
tp3384
a(S'hard'
p3385
F0.0009305827120735264
tp3386
a(S'end'
p3387
F0.0009305827120735264
tp3388
a(S'stop'
p3389
F0.0009201267265446105
tp3390
a(S'engine'
p3391
F0.0009096707410156945
tp3392
a(S'without'
p3393
F0.0009096707410156945
tp3394
a(S'mph'
p3395
F0.0008992147554867785
tp3396
a(S'usa'
p3397
F0.0008992147554867785
tp3398
a(S'big'
p3399
F0.0008887587699578624
tp3400
a(S'find'
p3401
F0.0008887587699578624
tp3402
a(S'each'
p3403
F0.0008887587699578624
tp3404
a(S'name'
p3405
F0.0008887587699578624
tp3406
a(S'nothing'
p3407
F0.0008887587699578624
tp3408
a(S'point'
p3409
F0.0008887587699578624
tp3410
a(S'best'
p3411
F0.0008783027844289464
tp3412
a(S'old'
p3413
F0.0008783027844289464
tp3414
a(S'lock'
p3415
F0.0008783027844289464
tp3416
a(S'actually'
p3417
F0.0008783027844289464
tp3418
a(S'yes'
p3419
F0.0008678467989000304
tp3420
a(S'wheel'
p3421
F0.0008678467989000304
tp3422
a(S'biker'
p3423
F0.0008573908133711143
tp3424
a(S'wave'
p3425
F0.0008573908133711143
tp3426
a(S'run'
p3427
F0.0008573908133711143
tp3428
a(S'thought'
p3429
F0.0008573908133711143
tp3430
a(S'opinions'
p3431
F0.0008469348278421983
tp3432
a(S'live'
p3433
F0.0008469348278421983
tp3434
a(S'head'
p3435
F0.0008364788423132823
tp3436
a(S'riders'
p3437
F0.0008260228567843663
tp3438
a(S'hey'
p3439
F0.0008260228567843663
tp3440
a(S'less'
p3441
F0.0008260228567843663
tp3442
a(S'away'
p3443
F0.0008260228567843663
tp3444
a(S'ed'
p3445
F0.0008260228567843663
tp3446
a(S'area'
p3447
F0.0008260228567843663
tp3448
a(S'bad'
p3449
F0.0008260228567843663
tp3450
a(S'driving'
p3451
F0.0008260228567843663
tp3452
a(g2017
F0.0008260228567843663
tp3453
a(S'tell'
p3454
F0.0008155668712554502
tp3455
a(S'tank'
p3456
F0.0008051108857265342
tp3457
a(S'motorcycles'
p3458
F0.0007946549001976182
tp3459
a(S'seems'
p3460
F0.0007946549001976182
tp3461
a(S'makes'
p3462
F0.0007841989146687021
tp3463
a(S'again'
p3464
F0.0007841989146687021
tp3465
a(S'bit'
p3466
F0.0007841989146687021
tp3467
a(S'though'
p3468
F0.0007737429291397861
tp3469
a(S'quite'
p3470
F0.0007632869436108701
tp3471
a(S'mean'
p3472
F0.0007632869436108701
tp3473
a(S'always'
p3474
F0.0007632869436108701
tp3475
a(S'face'
p3476
F0.0007632869436108701
tp3477
a(S'went'
p3478
F0.0007632869436108701
tp3479
a(S'until'
p3480
F0.0007528309580819541
tp3481
a(S'seen'
p3482
F0.000742374972553038
tp3483
a(S'black'
p3484
F0.000742374972553038
tp3485
a(S'gear'
p3486
F0.000742374972553038
tp3487
a(S'heard'
p3488
F0.000742374972553038
tp3489
a(S'things'
p3490
F0.000731918987024122
tp3491
a(S'traffic'
p3492
F0.000731918987024122
tp3493
a(S'night'
p3494
F0.000731918987024122
tp3495
a(S'ground'
p3496
F0.000721463001495206
tp3497
a(S'line'
p3498
F0.000721463001495206
tp3499
a(S'pretty'
p3500
F0.000721463001495206
tp3501
a(S'seat'
p3502
F0.000721463001495206
tp3503
a(S'ok'
p3504
F0.000721463001495206
tp3505
a(S'light'
p3506
F0.000721463001495206
tp3507
a(S'having'
p3508
F0.0007110070159662899
tp3509
a(S'cage'
p3510
F0.0007110070159662899
tp3511
a(S'cb'
p3512
F0.0007110070159662899
tp3513
a(S'nice'
p3514
F0.0007110070159662899
tp3515
a(S'under'
p3516
F0.0007110070159662899
tp3517
a(S'wanted'
p3518
F0.0007110070159662899
tp3519
a(S'drinking'
p3520
F0.0007110070159662899
tp3521
a(S'guy'
p3522
F0.0007005510304373739
tp3523
a(S'done'
p3524
F0.0007005510304373739
tp3525
a(S'feet'
p3526
F0.0007005510304373739
tp3527
a(S'once'
p3528
F0.0007005510304373739
tp3529
a(S'fit'
p3530
F0.0006900950449084579
tp3531
a(S'passenger'
p3532
F0.0006900950449084579
tp3533
a(S'year'
p3534
F0.0006900950449084579
tp3535
a(S'between'
p3536
F0.0006900950449084579
tp3537
a(S'zx'
p3538
F0.0006900950449084579
tp3539
a(S'fast'
p3540
F0.0006900950449084579
tp3541
a(S'high'
p3542
F0.0006796390593795419
tp3543
a(S'gas'
p3544
F0.0006796390593795419
tp3545
a(S'oh'
p3546
F0.0006796390593795419
tp3547
a(S'found'
p3548
F0.0006691830738506258
tp3549
a(g1144
F0.0006691830738506258
tp3550
a(S'couple'
p3551
F0.0006691830738506258
tp3552
a(S'place'
p3553
F0.0006691830738506258
tp3554
a(S'shaft'
p3555
F0.0006691830738506258
tp3556
a(S'idea'
p3557
F0.0006587270883217098
tp3558
aa(lp3559
(g12
F0.03251077164120642
tp3560
a(S'year'
p3561
F0.006133603959690917
tp3562
a(S'game'
p3563
F0.005982266851832069
tp3564
a(S'team'
p3565
F0.0048338852686678774
tp3566
a(S'baseball'
p3567
F0.004735961257700388
tp3568
a(S'think'
p3569
F0.0043887761279065626
tp3570
a(S'last'
p3571
F0.004353167396645657
tp3572
a(S'good'
p3573
F0.004219634654417263
tp3574
a(S'games'
p3575
F0.004077199729373642
tp3576
a(S'players'
p3577
F0.0037389167823950434
tp3578
a(S'time'
p3579
F0.003551970943275291
tp3580
a(S'first'
p3581
F0.0034985578463839332
tp3582
a(S'know'
p3583
F0.0032314923619271444
tp3584
a(S'better'
p3585
F0.0031958836306662393
tp3586
a(S'hit'
p3587
F0.0031780792650357866
tp3588
a(S'well'
p3589
F0.0030534487056226188
tp3590
a(S'runs'
p3591
F0.002848698500872414
tp3592
a(S'win'
p3593
F0.002572730833600399
tp3594
a(S'see'
p3595
F0.002519317736709041
tp3596
a(S'go'
p3597
F0.002421393725741552
tp3598
a(S'league'
p3599
F0.0023590784460349678
tp3600
a(S'braves'
p3601
F0.0023501762632197414
tp3602
a(S'season'
p3603
F0.002341274080404515
tp3604
a(S'best'
p3605
F0.0022344478866217995
tp3606
a(S'years'
p3607
F0.0021365238756543103
tp3608
a(S'really'
p3609
F0.0021009151443934053
tp3610
a(S'won'
p3611
F0.002029697681871595
tp3612
a(S'over'
p3613
F0.002029697681871595
tp3614
a(S'play'
p3615
F0.0020207954990563684
tp3616
a(S'back'
p3617
F0.0020118933162411425
tp3618
a(S'way'
p3619
F0.0019317736709041056
tp3620
a(S'player'
p3621
F0.0019228714880888795
tp3622
a(S'distribution'
p3623
F0.0019228714880888795
tp3624
a(S'still'
p3625
F0.001913969305273653
tp3626
a(S'new'
p3627
F0.0019050671224584267
tp3628
a(S'make'
p3629
F0.0018872627568279742
tp3630
a(S'pitching'
p3631
F0.0018605562083822953
tp3632
a(S'morris'
p3633
F0.001851654025567069
tp3634
a(S'average'
p3635
F0.0018427518427518428
tp3636
a(S'those'
p3637
F0.0018427518427518428
tp3638
a(S'ball'
p3639
F0.0018071431114909376
tp3640
a(S'pitcher'
p3641
F0.0017804365630452587
tp3642
a(S'people'
p3643
F0.0017626321974148062
tp3644
a(S'right'
p3645
F0.0017537300145995798
tp3646
a(S'run'
p3647
F0.001700316917708222
tp3648
a(S'anyone'
p3649
F0.001700316917708222
tp3650
a(S'being'
p3651
F0.0016914147348929957
tp3652
a(S'sox'
p3653
F0.0016736103692625431
tp3654
a(S'home'
p3655
F0.0016558060036320906
tp3656
a(S'lot'
p3657
F0.0015667841754798276
tp3658
a(S'lost'
p3659
F0.0015667841754798276
tp3660
a(S'going'
p3661
F0.0015311754442189226
tp3662
a(g214
F0.0015311754442189226
tp3663
a(S'hitter'
p3664
F0.0015311754442189226
tp3665
a(S'cubs'
p3666
F0.0015222732614036962
tp3667
a(S'look'
p3668
F0.0014955667129580173
tp3669
a(S'batting'
p3670
F0.0014955667129580173
tp3671
a(S'down'
p3672
F0.0014777623473275648
tp3673
a(S'probably'
p3674
F0.001459957981697112
tp3675
a(S'th'
p3676
F0.0014421536160666595
tp3677
a(S'day'
p3678
F0.0014332514332514332
tp3679
a(S'here'
p3680
F0.001362033970729623
tp3681
a(S'fans'
p3682
F0.001362033970729623
tp3683
a(S'base'
p3684
F0.0013531317879143965
tp3685
a(S'stats'
p3686
F0.0013531317879143965
tp3687
a(S'believe'
p3688
F0.0013531317879143965
tp3689
a(S'second'
p3690
F0.0013442296050991704
tp3691
a(S'fan'
p3692
F0.0013442296050991704
tp3693
a(S'teams'
p3694
F0.001335327422283944
tp3695
a(S'jays'
p3696
F0.0013264252394687176
tp3697
a(S'come'
p3698
F0.0013175230566534915
tp3699
a(S'bad'
p3700
F0.0013086208738382651
tp3701
a(S'hitting'
p3702
F0.0012997186910230388
tp3703
a(S'long'
p3704
F0.0012997186910230388
tp3705
a(S'give'
p3706
F0.0012819143253925862
tp3707
a(S'before'
p3708
F0.0012819143253925862
tp3709
a(S'clutch'
p3710
F0.0012819143253925862
tp3711
a(S'great'
p3712
F0.0012730121425773599
tp3713
a(S'again'
p3714
F0.0012730121425773599
tp3715
a(S'made'
p3716
F0.0012641099597621337
tp3717
a(S'maybe'
p3718
F0.0012552077769469074
tp3719
a(S'little'
p3720
F0.0012552077769469074
tp3721
a(S'same'
p3722
F0.0012552077769469074
tp3723
a(S'something'
p3724
F0.0012552077769469074
tp3725
a(S'dave'
p3726
F0.001246305594131681
tp3727
a(S'take'
p3728
F0.001246305594131681
tp3729
a(S'big'
p3730
F0.001246305594131681
tp3731
a(S'point'
p3732
F0.0012285012285012285
tp3733
a(S'phillies'
p3734
F0.001219599045686002
tp3735
a(S'pitch'
p3736
F0.001219599045686002
tp3737
a(S'sure'
p3738
F0.001219599045686002
tp3739
a(S'series'
p3740
F0.001210696862870776
tp3741
a(S'never'
p3742
F0.0012017946800555496
tp3743
a(S'world'
p3744
F0.0012017946800555496
tp3745
a(S'career'
p3746
F0.0011928924972403232
tp3747
a(S'red'
p3748
F0.0011928924972403232
tp3749
a(S'gant'
p3750
F0.0011928924972403232
tp3751
a(S'both'
p3752
F0.001183990314425097
tp3753
a(S'three'
p3754
F0.001183990314425097
tp3755
a(S'third'
p3756
F0.0011750881316098707
tp3757
a(S'want'
p3758
F0.0011661859487946446
tp3759
a(S'mets'
p3760
F0.0011572837659794182
tp3761
a(S'bonds'
p3762
F0.0011572837659794182
tp3763
a(S'list'
p3764
F0.0011305772175337393
tp3765
a(S'pitchers'
p3766
F0.0011127728519032868
tp3767
a(S'pretty'
p3768
F0.0011038706690880604
tp3769
a(S'around'
p3770
F0.0010771641206423815
tp3771
a(S'giants'
p3772
F0.0010771641206423815
tp3773
a(S'jewish'
p3774
F0.0010771641206423815
tp3775
a(S'though'
p3776
F0.0010771641206423815
tp3777
a(S'another'
p3778
F0.0010682619378271552
tp3779
a(S'guys'
p3780
F0.0010682619378271552
tp3781
a(S'field'
p3782
F0.001059359755011929
tp3783
a(S'mike'
p3784
F0.001059359755011929
tp3785
a(S'al'
p3786
F0.0010504575721967026
tp3787
a(S'thanks'
p3788
F0.0010504575721967026
tp3789
a(S'john'
p3790
F0.0010415553893814763
tp3791
a(S'next'
p3792
F0.0010326532065662501
tp3793
a(S'actually'
p3794
F0.0010326532065662501
tp3795
a(S'start'
p3796
F0.0010148488409357974
tp3797
a(S'far'
p3798
F0.0010059466581205712
tp3799
a(S'hits'
p3800
F0.0009970444753053449
tp3801
a(S'left'
p3802
F0.0009881422924901185
tp3803
a(S'bob'
p3804
F0.0009792401096748924
tp3805
a(S'few'
p3806
F0.0009792401096748924
tp3807
a(S'era'
p3808
F0.000970337926859666
tp3809
a(S'alomar'
p3810
F0.000970337926859666
tp3811
a(S'help'
p3812
F0.0009614357440444397
tp3813
a(S'boston'
p3814
F0.0009525335612292134
tp3815
a(S'toronto'
p3816
F0.0009525335612292134
tp3817
a(S'used'
p3818
F0.0009436313784139871
tp3819
a(S'nl'
p3820
F0.0009436313784139871
tp3821
a(S'thing'
p3822
F0.0009347291955987608
tp3823
a(S'guy'
p3824
F0.0009258270127835345
tp3825
a(S'between'
p3826
F0.0009258270127835345
tp3827
a(S'through'
p3828
F0.0009258270127835345
tp3829
a(S'reds'
p3830
F0.0009258270127835345
tp3831
a(S'score'
p3832
F0.0009169248299683082
tp3833
a(S'san'
p3834
F0.0009169248299683082
tp3835
a(S'young'
p3836
F0.0009169248299683082
tp3837
a(S'yankees'
p3838
F0.0009169248299683082
tp3839
a(S'find'
p3840
F0.0009169248299683082
tp3841
a(S'winning'
p3842
F0.000908022647153082
tp3843
a(S'work'
p3844
F0.0008991204643378556
tp3845
a(S'remember'
p3846
F0.0008902182815226293
tp3847
a(S'numbers'
p3848
F0.0008902182815226293
tp3849
a(S'hall'
p3850
F0.0008813160987074031
tp3851
a(S'reason'
p3852
F0.0008813160987074031
tp3853
a(S'against'
p3854
F0.0008813160987074031
tp3855
a(S'defensive'
p3856
F0.0008724139158921767
tp3857
a(S'total'
p3858
F0.0008724139158921767
tp3859
a(S'performance'
p3860
F0.0008724139158921767
tp3861
a(S'na'
p3862
F0.0008724139158921767
tp3863
a(S'call'
p3864
F0.0008635117330769505
tp3865
a(S'jack'
p3866
F0.0008635117330769505
tp3867
a(S'bases'
p3868
F0.0008546095502617242
tp3869
a(S'enough'
p3870
F0.0008546095502617242
tp3871
a(S'playing'
p3872
F0.0008546095502617242
tp3873
a(S'please'
p3874
F0.0008546095502617242
tp3875
a(S'name'
p3876
F0.0008546095502617242
tp3877
a(S'always'
p3878
F0.0008457073674464978
tp3879
a(S'bat'
p3880
F0.0008457073674464978
tp3881
a(S'clemens'
p3882
F0.0008457073674464978
tp3883
a(S'each'
p3884
F0.0008457073674464978
tp3885
a(S'number'
p3886
F0.0008368051846312716
tp3887
a(S'tell'
p3888
F0.0008368051846312716
tp3889
a(S'york'
p3890
F0.0008368051846312716
tp3891
a(S'smith'
p3892
F0.0008368051846312716
tp3893
a(S'strike'
p3894
F0.0008279030018160453
tp3895
a(S'seems'
p3896
F0.0008279030018160453
tp3897
a(S'certainly'
p3898
F0.000819000819000819
tp3899
a(S'past'
p3900
F0.0008100986361855927
tp3901
a(S'hr'
p3902
F0.0008100986361855927
tp3903
a(S'post'
p3904
F0.0008011964533703664
tp3905
a(S'division'
p3906
F0.0008011964533703664
tp3907
a(S'need'
p3908
F0.0008011964533703664
tp3909
a(S'came'
p3910
F0.0007922942705551402
tp3911
a(S'mark'
p3912
F0.0007922942705551402
tp3913
a(S'done'
p3914
F0.0007922942705551402
tp3915
a(S'defense'
p3916
F0.0007922942705551402
tp3917
a(S'philadelphia'
p3918
F0.0007833920877399138
tp3919
a(S'major'
p3920
F0.0007833920877399138
tp3921
a(S'line'
p3922
F0.0007833920877399138
tp3923
a(S'rbi'
p3924
F0.0007833920877399138
tp3925
a(S'early'
p3926
F0.0007833920877399138
tp3927
a(S'pitches'
p3928
F0.0007833920877399138
tp3929
a(S'innings'
p3930
F0.0007833920877399138
tp3931
a(S'yes'
p3932
F0.0007833920877399138
tp3933
a(S'someone'
p3934
F0.0007833920877399138
tp3935
a(S'thought'
p3936
F0.0007833920877399138
tp3937
a(S'wins'
p3938
F0.0007744899049246875
tp3939
a(S'east'
p3940
F0.0007744899049246875
tp3941
a(S'gets'
p3942
F0.0007744899049246875
tp3943
a(S'course'
p3944
F0.0007744899049246875
tp3945
a(S'man'
p3946
F0.0007744899049246875
tp3947
a(S'frank'
p3948
F0.0007744899049246875
tp3949
a(S'ok'
p3950
F0.0007744899049246875
tp3951
a(S'rule'
p3952
F0.0007655877221094613
tp3953
a(S'mean'
p3954
F0.0007655877221094613
tp3955
a(S'anything'
p3956
F0.0007566855392942349
tp3957
aa(lp3958
(g12
F0.04485156553355219
tp3959
a(S'game'
p3960
F0.007829432736771506
tp3961
a(S'team'
p3962
F0.006798686857990045
tp3963
a(S'hockey'
p3964
F0.006050337110381588
tp3965
a(S'go'
p3966
F0.004066504288891242
tp3967
a(S'play'
p3968
F0.003988845352818666
tp3969
a(S'games'
p3970
F0.0039041265134667656
tp3971
a(S'nhl'
p3972
F0.003664089801969713
tp3973
a(S'think'
p3974
F0.0034946521232659114
tp3975
a(S'season'
p3976
F0.00336757386423806
tp3977
a(S'first'
p3978
F0.003063998023227082
tp3979
a(S'year'
p3980
F0.0030075187969924814
tp3981
a(S'players'
p3982
F0.00286632073140598
tp3983
a(S'win'
p3984
F0.0028522009248473294
tp3985
a(S'period'
p3986
F0.0027533622789367787
tp3987
a(S'good'
p3988
F0.002675703342864203
tp3989
a(S'time'
p3990
F0.002590984503512302
tp3991
a(S'last'
p3992
F0.002590984503512302
tp3993
a(S'new'
p3994
F0.0025415651805570263
tp3995
a(S'know'
p3996
F0.0025274453739983762
tp3997
a(S'see'
p3998
F0.002513325567439726
tp3999
a(S'player'
p4000
F0.0022732888559426736
tp4001
a(S'goal'
p4002
F0.0022591690493840235
tp4003
a(S'vs'
p4004
F0.002223869532987398
tp4005
a(S'cup'
p4006
F0.002216809629708073
tp4007
a(S'st'
p4008
F0.0021603304034734723
tp4009
a(S'teams'
p4010
F0.0021532705001941475
tp4011
a(S'espn'
p4012
F0.0021109110805181967
tp4013
a(S'la'
p4014
F0.0021109110805181967
tp4015
a(S'league'
p4016
F0.0020826714674008965
tp4017
a(S'over'
p4018
F0.002061491757562921
tp4019
a(S'pit'
p4020
F0.002026192241166296
tp4021
a(S'well'
p4022
F0.002019132337886971
tp4023
a(S'fans'
p4024
F0.0019697130149316953
tp4025
a(S'leafs'
p4026
F0.0019697130149316953
tp4027
a(S'gm'
p4028
F0.0019485333050937202
tp4029
a(S'pts'
p4030
F0.001941473401814395
tp4031
a(S'wings'
p4032
F0.0018920540788591195
tp4033
a(S'back'
p4034
F0.0018285149493451939
tp4035
a(S'playoffs'
p4036
F0.0018214550460658688
tp4037
a(S'best'
p4038
F0.0017861555296692436
tp4039
a(S'playoff'
p4040
F0.0017861555296692436
tp4041
a(S'next'
p4042
F0.0017649758198312684
tp4043
a(S'det'
p4044
F0.0017579159165519432
tp4045
a(S'division'
p4046
F0.001743796109993293
tp4047
a(S'going'
p4048
F0.001729676303434643
tp4049
a(S'really'
p4050
F0.0017155564968759928
tp4051
a(S'series'
p4052
F0.0017014366903173427
tp4053
a(S'boston'
p4054
F0.0016873168837586924
tp4055
a(S'way'
p4056
F0.0016873168837586924
tp4057
a(S'detroit'
p4058
F0.0016731970772000423
tp4059
a(S'people'
p4060
F0.0016661371739207173
tp4061
a(S'pittsburgh'
p4062
F0.0016590772706413922
tp4063
a(S'played'
p4064
F0.0016520173673620672
tp4065
a(S'rangers'
p4066
F0.001560238624730841
tp4067
a(S'better'
p4068
F0.0015249391083342158
tp4069
a(S'bos'
p4070
F0.0015249391083342158
tp4071
a(S'here'
p4072
F0.0015037593984962407
tp4073
a(S'against'
p4074
F0.0014966994952169154
tp4075
a(S'mike'
p4076
F0.0014896395919375904
tp4077
a(S'second'
p4078
F0.0014825796886582653
tp4079
a(S'bruins'
p4080
F0.0014825796886582653
tp4081
a(S'chi'
p4082
F0.0014684598820996152
tp4083
a(S'great'
p4084
F0.0014543400755409651
tp4085
a(S'april'
p4086
F0.00143316036570299
tp4087
a(S'right'
p4088
F0.0014261004624236647
tp4089
a(S'goals'
p4090
F0.0014119806558650146
tp4091
a(S'points'
p4092
F0.0014119806558650146
tp4093
a(S'ice'
p4094
F0.0014119806558650146
tp4095
a(S'make'
p4096
F0.0013978608493063645
tp4097
a(S'pens'
p4098
F0.0013978608493063645
tp4099
a(S'toronto'
p4100
F0.0013908009460270395
tp4101
a(S'blues'
p4102
F0.0013837410427477144
tp4103
a(S'puck'
p4104
F0.0013696212361890643
tp4105
a(S'flyers'
p4106
F0.001355501429630414
tp4107
a(S'tor'
p4108
F0.001348441526351089
tp4109
a(S'power'
p4110
F0.0013413816230717639
tp4111
a(S'before'
p4112
F0.0013343217197924388
tp4113
a(S'night'
p4114
F0.0013272618165131138
tp4115
a(S'van'
p4116
F0.0013131420099544637
tp4117
a(S'buffalo'
p4118
F0.0013060821066751386
tp4119
a(S'take'
p4120
F0.0012778424935578382
tp4121
a(S'montreal'
p4122
F0.0012778424935578382
tp4123
a(S'pp'
p4124
F0.0012707825902785132
tp4125
a(S'shots'
p4126
F0.0012637226869991881
tp4127
a(S'those'
p4128
F0.001256662783719863
tp4129
a(S'years'
p4130
F0.001249602880440538
tp4131
a(S'world'
p4132
F0.001249602880440538
tp4133
a(S'made'
p4134
F0.001242542977161213
tp4135
a(S'canada'
p4136
F0.001235483073881888
tp4137
a(S'cal'
p4138
F0.001235483073881888
tp4139
a(S'nyi'
p4140
F0.0012284231706025626
tp4141
a(S'being'
p4142
F0.0012001835574852624
tp4143
a(S'stanley'
p4144
F0.0011931236542059374
tp4145
a(S'jets'
p4146
F0.0011860637509266123
tp4147
a(S'devils'
p4148
F0.0011860637509266123
tp4149
a(S'penguins'
p4150
F0.0011790038476472873
tp4151
a(S'sharks'
p4152
F0.0011719439443679622
tp4153
a(S'still'
p4154
F0.001164884041088637
tp4155
a(S'l'
p4156
F0.0011507642345299869
tp4157
a(S'playing'
p4158
F0.0011507642345299869
tp4159
a(S'never'
p4160
F0.0011366444279713368
tp4161
a(S'que'
p4162
F0.0011154647181333616
tp4163
a(S'islanders'
p4164
F0.0011154647181333616
tp4165
a(S'down'
p4166
F0.0011084048148540366
tp4167
a(S'chicago'
p4168
F0.0011084048148540366
tp4169
a(S'fan'
p4170
F0.0010942850082953863
tp4171
a(S'coach'
p4172
F0.0010942850082953863
tp4173
a(S'vancouver'
p4174
F0.0010872251050160612
tp4175
a(S'point'
p4176
F0.0010872251050160612
tp4177
a(S'nj'
p4178
F0.0010872251050160612
tp4179
a(S'stl'
p4180
F0.0010801652017367362
tp4181
a(S'same'
p4182
F0.001073105298457411
tp4183
a(S'buf'
p4184
F0.001066045395178086
tp4185
a(S'pick'
p4186
F0.001058985491898761
tp4187
a(S'red'
p4188
F0.001044865685340111
tp4189
a(S'goalie'
p4190
F0.001044865685340111
tp4191
a(S'draft'
p4192
F0.0010378057820607859
tp4193
a(S'san'
p4194
F0.0010307458787814606
tp4195
a(S'little'
p4196
F0.0010307458787814606
tp4197
a(S'coverage'
p4198
F0.0010236859755021355
tp4199
a(S'winnipeg'
p4200
F0.0010166260722228105
tp4201
a(S'scoring'
p4202
F0.0010166260722228105
tp4203
a(S'another'
p4204
F0.0010095661689434854
tp4205
a(S'shot'
p4206
F0.0010095661689434854
tp4207
a(S'third'
p4208
F0.0010025062656641604
tp4209
a(S'calgary'
p4210
F0.0009954463623848353
tp4211
a(S'give'
p4212
F0.0009883864591055103
tp4213
a(S'flames'
p4214
F0.0009813265558261852
tp4215
a(S'kings'
p4216
F0.0009813265558261852
tp4217
a(S'g'
p4218
F0.0009813265558261852
tp4219
a(S'distribution'
p4220
F0.000967206749267535
tp4221
a(S'sabres'
p4222
F0.000967206749267535
tp4223
a(S'baseball'
p4224
F0.000967206749267535
tp4225
a(S'put'
p4226
F0.00096014684598821
tp4227
a(S'during'
p4228
F0.00096014684598821
tp4229
a(S'quebec'
p4230
F0.00096014684598821
tp4231
a(S'ahl'
p4232
F0.00096014684598821
tp4233
a(S'bad'
p4234
F0.0009530869427088849
tp4235
a(S'show'
p4236
F0.0009530869427088849
tp4237
a(S'again'
p4238
F0.0009389671361502347
tp4239
a(S'sure'
p4240
F0.0009389671361502347
tp4241
a(S'anyone'
p4242
F0.0009319072328709097
tp4243
a(S'round'
p4244
F0.0009248473295915846
tp4245
a(S'final'
p4246
F0.0009177874263122596
tp4247
a(S'penalty'
p4248
F0.0009036676197536094
tp4249
a(S'louis'
p4250
F0.0008966077164742843
tp4251
a(S'min'
p4252
F0.0008966077164742843
tp4253
a(S'john'
p4254
F0.0008895478131949593
tp4255
a(S'list'
p4256
F0.0008895478131949593
tp4257
a(S'around'
p4258
F0.0008824879099156342
tp4259
a(S'mon'
p4260
F0.0008824879099156342
tp4261
a(S'getting'
p4262
F0.0008824879099156342
tp4263
a(S'lemieux'
p4264
F0.000875428006636309
tp4265
a(S'end'
p4266
F0.000875428006636309
tp4267
a(S'probably'
p4268
F0.000868368103356984
tp4269
a(S'away'
p4270
F0.000861308200077659
tp4271
a(S'usa'
p4272
F0.000861308200077659
tp4273
a(S'roger'
p4274
F0.0008542482967983339
tp4275
a(S'guy'
p4276
F0.0008542482967983339
tp4277
a(S'went'
p4278
F0.0008542482967983339
tp4279
a(S'traded'
p4280
F0.0008542482967983339
tp4281
a(S'rd'
p4282
F0.0008471883935190087
tp4283
a(S'line'
p4284
F0.0008330685869603586
tp4285
a(S'both'
p4286
F0.0008330685869603586
tp4287
a(S'bob'
p4288
F0.0008260086836810336
tp4289
a(S'mark'
p4290
F0.0008260086836810336
tp4291
a(g474
F0.0008260086836810336
tp4292
a(S'lot'
p4293
F0.0008189487804017085
tp4294
a(S'edmonton'
p4295
F0.0008189487804017085
tp4296
a(S'hawks'
p4297
F0.0008189487804017085
tp4298
a(S'watch'
p4299
F0.0008189487804017085
tp4300
a(S'ny'
p4301
F0.0008189487804017085
tp4302
a(S'scored'
p4303
F0.0008118888771223834
tp4304
a(S'oilers'
p4305
F0.0008118888771223834
tp4306
a(S'th'
p4307
F0.0008048289738430583
tp4308
a(S'penalties'
p4309
F0.0008048289738430583
tp4310
a(S'far'
p4311
F0.0008048289738430583
tp4312
a(S'nyr'
p4313
F0.0008048289738430583
tp4314
a(S'through'
p4315
F0.0008048289738430583
tp4316
a(S'come'
p4317
F0.0008048289738430583
tp4318
a(S'something'
p4319
F0.0008048289738430583
tp4320
a(S'contact'
p4321
F0.0007977690705637333
tp4322
a(S'record'
p4323
F0.0007977690705637333
tp4324
a(S'city'
p4325
F0.0007907091672844082
tp4326
a(S'jose'
p4327
F0.0007907091672844082
tp4328
a(S'nd'
p4329
F0.0007907091672844082
tp4330
a(S'name'
p4331
F0.0007907091672844082
tp4332
a(S'caps'
p4333
F0.0007836492640050832
tp4334
a(S'mario'
p4335
F0.0007836492640050832
tp4336
a(S'always'
p4337
F0.000776589360725758
tp4338
a(S'fuhr'
p4339
F0.000776589360725758
tp4340
a(S'beat'
p4341
F0.000769529457446433
tp4342
a(S'each'
p4343
F0.000769529457446433
tp4344
a(S'post'
p4345
F0.0007624695541671079
tp4346
a(S'abc'
p4347
F0.0007624695541671079
tp4348
a(S'want'
p4349
F0.0007554096508877829
tp4350
a(S'look'
p4351
F0.0007554096508877829
tp4352
a(S'lost'
p4353
F0.0007554096508877829
tp4354
a(S'defense'
p4355
F0.0007483497476084577
tp4356
aa(lp4357
(S'key'
p4358
F0.007912013577256887
tp4359
a(S'encryption'
p4360
F0.006504762307408906
tp4361
a(S'clipper'
p4362
F0.006214856466410181
tp4363
a(S'chip'
p4364
F0.005773957999891285
tp4365
a(g12
F0.005308900713289163
tp4366
a(S'government'
p4367
F0.004837803721666234
tp4368
a(S'use'
p4369
F0.004777406671458166
tp4370
a(S'people'
p4371
F0.004100959709127806
tp4372
a(S'system'
p4373
F0.0035392671421927754
tp4374
a(g214
F0.00345471127190148
tp4375
a(S'keys'
p4376
F0.0034486715668806734
tp4377
a(S'security'
p4378
F0.0033339171714853446
tp4379
a(S'db'
p4380
F0.003321837761443731
tp4381
a(S'information'
p4382
F0.002995693690320165
tp4383
a(S'public'
p4384
F0.002905098115008063
tp4385
a(S'privacy'
p4386
F0.0027903437196127342
tp4387
a(S'know'
p4388
F0.0027782643095711204
tp4389
a(S'new'
p4390
F0.002766184899529507
tp4391
a(S'algorithm'
p4392
F0.0026453907991133715
tp4393
a(S'law'
p4394
F0.002621231979030144
tp4395
a(S'good'
p4396
F0.0025849937489053035
tp4397
a(S'used'
p4398
F0.002566874633842883
tp4399
a(S'des'
p4400
F0.0025608349288220762
tp4401
a(S'data'
p4402
F0.002464199648489168
tp4403
a(S'distribution'
p4404
F0.00242192171334352
tp4405
a(S'think'
p4406
F0.0024038025982811
tp4407
a(S'phone'
p4408
F0.002325286433010612
tp4409
a(S'nsa'
p4410
F0.002313207022968998
tp4411
a(S'escrow'
p4412
F0.002264889382802544
tp4413
a(S'bit'
p4414
F0.00223469085769851
tp4415
a(S'right'
p4416
F0.0022226114476568966
tp4417
a(S'number'
p4418
F0.0021622143974488286
tp4419
a(S'crypto'
p4420
F0.0021018173472407606
tp4421
a(S'time'
p4422
F0.0020836982321783405
tp4423
a(S'make'
p4424
F0.001981023246824625
tp4425
a(S'secure'
p4426
F0.0019749835418038184
tp4427
a(S'available'
p4428
F0.0019508247217205912
tp4429
a(S'need'
p4430
F0.0019145864915957505
tp4431
a(S'those'
p4432
F0.0019025070815541368
tp4433
a(S'secret'
p4434
F0.0018964673765333301
tp4435
a(S'code'
p4436
F0.001872308556450103
tp4437
a(S'technology'
p4438
F0.0018239909162836487
tp4439
a(S'using'
p4440
F0.0018239909162836487
tp4441
a(S'pgp'
p4442
F0.0018239909162836487
tp4443
a(g1162
F0.0017213159309299334
tp4444
a(S'email'
p4445
F0.0017152762259091266
tp4446
a(S'see'
p4447
F0.0017092365208883197
tp4448
a(S'way'
p4449
F0.0016850777008050927
tp4450
a(S'enforcement'
p4451
F0.0016609188807218656
tp4452
a(S'computer'
p4453
F0.0016609188807218656
tp4454
a(S'cryptography'
p4455
F0.0016367600606386383
tp4456
a(S'anonymous'
p4457
F0.0016307203556178316
tp4458
a(S'want'
p4459
F0.001624680650597025
tp4460
a(S'internet'
p4461
F0.001618640945576218
tp4462
a(S'here'
p4463
F0.0015703233054097639
tp4464
a(S'encrypted'
p4465
F0.0015703233054097639
tp4466
a(S'without'
p4467
F0.001564283600388957
tp4468
a(S'wiretap'
p4469
F0.0015340850752849232
tp4470
a(S'first'
p4471
F0.001509926255201696
tp4472
a(S'access'
p4473
F0.001509926255201696
tp4474
a(S'work'
p4475
F0.0014978468451600825
tp4476
a(S'find'
p4477
F0.001479727730097662
tp4478
a(S'over'
p4479
F0.0014616086150352416
tp4480
a(S'well'
p4481
F0.0014374497949520145
tp4482
a(S'private'
p4483
F0.0014314100899312078
tp4484
a(S'being'
p4485
F0.0014253703849104009
tp4486
a(S'once'
p4487
F0.0014072512698479805
tp4488
a(S'read'
p4489
F0.0013951718598063671
tp4490
a(S'communications'
p4491
F0.0013830924497647535
tp4492
a(S'agencies'
p4493
F0.0013226953995566857
tp4494
a(S'anyone'
p4495
F0.0012985365794734585
tp4496
a(S'bits'
p4497
F0.0012924968744526517
tp4498
a(S'each'
p4499
F0.0012683380543694247
tp4500
a(S'order'
p4501
F0.0012622983493486178
tp4502
a(S'systems'
p4503
F0.0012622983493486178
tp4504
a(S'before'
p4505
F0.001226060119223777
tp4506
a(S'same'
p4507
F0.001226060119223777
tp4508
a(S'take'
p4509
F0.0012200204142029704
tp4510
a(S'going'
p4511
F0.0012200204142029704
tp4512
a(S'really'
p4513
F0.0012079410041613567
tp4514
a(S'someone'
p4515
F0.0012079410041613567
tp4516
a(S'chips'
p4517
F0.0012079410041613567
tp4518
a(S'sure'
p4519
F0.0012079410041613567
tp4520
a(S'point'
p4521
F0.00120190129914055
tp4522
a(S'under'
p4523
F0.001195861594119743
tp4524
a(S'clinton'
p4525
F0.0011898218890989364
tp4526
a(S'part'
p4527
F0.0011837821840781297
tp4528
a(S'something'
p4529
F0.0011777424790573227
tp4530
a(g990
F0.001171702774036516
tp4531
a(S'things'
p4532
F0.0011656630690157093
tp4533
a(S'probably'
p4534
F0.0011596233639949024
tp4535
a(S'file'
p4536
F0.0011596233639949024
tp4537
a(S'strong'
p4538
F0.0011354645439116753
tp4539
a(S'na'
p4540
F0.0011354645439116753
tp4541
a(g2150
F0.0011233851338700617
tp4542
a(S'administration'
p4543
F0.0011052660188076414
tp4544
a(S'general'
p4545
F0.0011052660188076414
tp4546
a(S'mail'
p4547
F0.001087146903745221
tp4548
a(S'still'
p4549
F0.0010750674937036076
tp4550
a(S'protect'
p4551
F0.0010750674937036076
tp4552
a(S'fact'
p4553
F0.0010690277886828007
tp4554
a(S'standard'
p4555
F0.0010690277886828007
tp4556
a(S'house'
p4557
F0.0010690277886828007
tp4558
a(S'court'
p4559
F0.0010690277886828007
tp4560
a(S'serial'
p4561
F0.0010690277886828007
tp4562
a(S'rsa'
p4563
F0.001038829263578767
tp4564
a(S'u'
p4565
F0.001038829263578767
tp4566
a(S'block'
p4567
F0.00103278955855796
tp4568
a(g474
F0.0010267498535371533
tp4569
a(S'possible'
p4570
F0.0010207101485163465
tp4571
a(S'trust'
p4572
F0.0010207101485163465
tp4573
a(S'device'
p4574
F0.001008630738474733
tp4575
a(S'against'
p4576
F0.001008630738474733
tp4577
a(S'david'
p4578
F0.0010025910334539262
tp4579
a(S'program'
p4580
F0.0009965513284331193
tp4581
a(S'enough'
p4582
F0.0009905116234123126
tp4583
a(S'course'
p4584
F0.0009844719183915059
tp4585
a(S'police'
p4586
F0.000978432213370699
tp4587
a(S'through'
p4588
F0.0009723925083498922
tp4589
a(S'real'
p4590
F0.0009603130983082786
tp4591
a(S'world'
p4592
F0.0009542733932874719
tp4593
a(S'etc'
p4594
F0.0009542733932874719
tp4595
a(S'both'
p4596
F0.0009482336882666651
tp4597
a(S'voice'
p4598
F0.0009482336882666651
tp4599
a(S'keep'
p4600
F0.0009421939832458582
tp4601
a(S'believe'
p4602
F0.0009421939832458582
tp4603
a(S'f'
p4604
F0.0009421939832458582
tp4605
a(S'question'
p4606
F0.0009421939832458582
tp4607
a(S'years'
p4608
F0.0009301145732042447
tp4609
a(S'source'
p4610
F0.0009301145732042447
tp4611
a(S'white'
p4612
F0.0009301145732042447
tp4613
a(S'means'
p4614
F0.0009240748681834379
tp4615
a(S'software'
p4616
F0.0009240748681834379
tp4617
a(S'long'
p4618
F0.0009240748681834379
tp4619
a(S'back'
p4620
F0.0009240748681834379
tp4621
a(S'between'
p4622
F0.0009180351631626312
tp4623
a(S'scheme'
p4624
F0.0009180351631626312
tp4625
a(S'case'
p4626
F0.0009180351631626312
tp4627
a(S'phones'
p4628
F0.0009059557531210175
tp4629
a(S'seems'
p4630
F0.0009059557531210175
tp4631
a(S'legal'
p4632
F0.0009059557531210175
tp4633
a(S'thing'
p4634
F0.0008999160481002108
tp4635
a(S'please'
p4636
F0.0008999160481002108
tp4637
a(S'technical'
p4638
F0.0008817969330377905
tp4639
a(S'person'
p4640
F0.0008817969330377905
tp4641
a(S'call'
p4642
F0.0008817969330377905
tp4643
a(S'national'
p4644
F0.0008817969330377905
tp4645
a(S'proposal'
p4646
F0.0008817969330377905
tp4647
a(S'random'
p4648
F0.0008817969330377905
tp4649
a(S'example'
p4650
F0.0008757572280169837
tp4651
a(S'users'
p4652
F0.0008757572280169837
tp4653
a(S'ripem'
p4654
F0.0008697175229961769
tp4655
a(S'tapped'
p4656
F0.0008697175229961769
tp4657
a(S'rights'
p4658
F0.0008697175229961769
tp4659
a(S'idea'
p4660
F0.0008697175229961769
tp4661
a(S'given'
p4662
F0.0008697175229961769
tp4663
a(S'electronic'
p4664
F0.00086367781797537
tp4665
a(S'go'
p4666
F0.0008576381129545633
tp4667
a(S'another'
p4668
F0.0008515984079337565
tp4669
a(S'second'
p4670
F0.0008455587029129497
tp4671
a(S'line'
p4672
F0.000839518997892143
tp4673
a(S'note'
p4674
F0.0008334792928713362
tp4675
a(S'mov'
p4676
F0.0008334792928713362
tp4677
a(S'anything'
p4678
F0.0008213998828297226
tp4679
a(S'cipher'
p4680
F0.0008213998828297226
tp4681
a(S'fbi'
p4682
F0.0008213998828297226
tp4683
a(S'big'
p4684
F0.0008153601778089158
tp4685
a(S'list'
p4686
F0.0008153601778089158
tp4687
a(S'devices'
p4688
F0.000809320472788109
tp4689
a(S'tell'
p4690
F0.0008032807677673023
tp4691
a(S'give'
p4692
F0.0008032807677673023
tp4693
a(S'better'
p4694
F0.0008032807677673023
tp4695
a(S'session'
p4696
F0.0007972410627464955
tp4697
a(S'posting'
p4698
F0.0007912013577256886
tp4699
a(S'few'
p4700
F0.0007912013577256886
tp4701
a(S'send'
p4702
F0.0007851616527048819
tp4703
a(S'ftp'
p4704
F0.0007791219476840751
tp4705
a(S'messages'
p4706
F0.0007791219476840751
tp4707
a(S'care'
p4708
F0.0007730822426632683
tp4709
a(S'state'
p4710
F0.0007730822426632683
tp4711
a(S'attack'
p4712
F0.0007610028326216548
tp4713
a(S'announcement'
p4714
F0.0007610028326216548
tp4715
a(S'whether'
p4716
F0.0007610028326216548
tp4717
a(S'issue'
p4718
F0.000754963127600848
tp4719
a(S'american'
p4720
F0.000754963127600848
tp4721
a(S'digital'
p4722
F0.000754963127600848
tp4723
a(S'classified'
p4724
F0.000754963127600848
tp4725
a(S'keyescrow'
p4726
F0.000754963127600848
tp4727
a(S'made'
p4728
F0.000754963127600848
tp4729
a(S'provide'
p4730
F0.0007489234225800412
tp4731
a(S'actually'
p4732
F0.0007489234225800412
tp4733
a(S'little'
p4734
F0.0007489234225800412
tp4735
a(S'though'
p4736
F0.0007489234225800412
tp4737
a(S'far'
p4738
F0.0007489234225800412
tp4739
a(S'try'
p4740
F0.0007428837175592344
tp4741
a(S'put'
p4742
F0.0007428837175592344
tp4743
a(S'run'
p4744
F0.0007428837175592344
tp4745
a(S'end'
p4746
F0.0007428837175592344
tp4747
a(S'already'
p4748
F0.0007428837175592344
tp4749
a(S'group'
p4750
F0.0007368440125384276
tp4751
aa(lp4752
(g12
F0.007940077836231005
tp4753
a(S'use'
p4754
F0.005563921537950052
tp4755
a(S'know'
p4756
F0.004204721021649424
tp4757
a(S'used'
p4758
F0.00350067471104766
tp4759
a(S'need'
p4760
F0.0032757710284943187
tp4761
a(S'power'
p4762
F0.0032171005026108384
tp4763
a(S'anyone'
p4764
F0.0030899810298632975
tp4765
a(S'good'
p4766
F0.002943304715154597
tp4767
a(S'work'
p4768
F0.0027379578745624156
tp4769
a(S'circuit'
p4770
F0.002601059980834295
tp4771
a(S'want'
p4772
F0.002581503138873135
tp4773
a(S'copy'
p4774
F0.002464162087106174
tp4775
a(S'ground'
p4776
F0.002454383666125594
tp4777
a(S'time'
p4778
F0.002444605245145014
tp4779
a(S'help'
p4780
F0.0022392584045528327
tp4781
a(S'make'
p4782
F0.0021805878786693524
tp4783
a(S'phone'
p4784
F0.002092582089844132
tp4785
a(S'wire'
p4786
F0.002063246826902392
tp4787
a(S'distribution'
p4788
F0.002063246826902392
tp4789
a(S'thanks'
p4790
F0.001985019459057751
tp4791
a(S'radio'
p4792
F0.001975241038077171
tp4793
a(S'current'
p4794
F0.001955684196116011
tp4795
a(S'think'
p4796
F0.001926348933174271
tp4797
a(g656
F0.001926348933174271
tp4798
a(S'battery'
p4799
F0.0018578999863102107
tp4800
a(S'using'
p4801
F0.0018383431443490506
tp4802
a(S'here'
p4803
F0.0017894510394461502
tp4804
a(S'something'
p4805
F0.00172100209258209
tp4806
a(S'line'
p4807
F0.0017112236716015099
tp4808
a(S'new'
p4809
F0.0017014452506209298
tp4810
a(S'find'
p4811
F0.0017014452506209298
tp4812
a(S'well'
p4813
F0.0016916668296403498
tp4814
a(S'same'
p4815
F0.0016916668296403498
tp4816
a(S'those'
p4817
F0.0016525531457180294
tp4818
a(S'way'
p4819
F0.0016427747247374494
tp4820
a(S'chip'
p4821
F0.0016427747247374494
tp4822
a(S'problem'
p4823
F0.0016427747247374494
tp4824
a(S'voltage'
p4825
F0.0016232178827762893
tp4826
a(S'data'
p4827
F0.0016036610408151292
tp4828
a(S'question'
p4829
F0.0015938826198345492
tp4830
a(S'output'
p4831
F0.0015841041988539691
tp4832
a(S'sure'
p4833
F0.001574325777873389
tp4834
a(S'really'
p4835
F0.0015352120939510687
tp4836
a(S'around'
p4837
F0.0015254336729704887
tp4838
a(S'system'
p4839
F0.0015254336729704887
tp4840
a(S'please'
p4841
F0.0015254336729704887
tp4842
a(S'number'
p4843
F0.0015058768310093286
tp4844
a(S'high'
p4845
F0.0014960984100287485
tp4846
a(S'wiring'
p4847
F0.0014863199890481685
tp4848
a(g990
F0.0014276494631646883
tp4849
a(S'looking'
p4850
F0.001417871042184108
tp4851
a(S'information'
p4852
F0.001417871042184108
tp4853
a(S'audio'
p4854
F0.0013885357792423679
tp4855
a(S'email'
p4856
F0.0013494220953200477
tp4857
a(S'program'
p4858
F0.0013494220953200477
tp4859
a(S'etc'
p4860
F0.0013396436743394677
tp4861
a(S'probably'
p4862
F0.0013396436743394677
tp4863
a(S'old'
p4864
F0.0013298652533588876
tp4865
a(S'people'
p4866
F0.0013298652533588876
tp4867
a(S'tv'
p4868
F0.0013298652533588876
tp4869
a(S'software'
p4870
F0.0013298652533588876
tp4871
a(S'electronics'
p4872
F0.0013298652533588876
tp4873
a(S'thing'
p4874
F0.0013200868323783076
tp4875
a(S'run'
p4876
F0.0013005299904171475
tp4877
a(S'see'
p4878
F0.0012907515694365675
tp4879
a(S'amp'
p4880
F0.0012907515694365675
tp4881
a(S'little'
p4882
F0.0012711947274754072
tp4883
a(S'over'
p4884
F0.0012614163064948271
tp4885
a(S'still'
p4886
F0.001251637885514247
tp4887
a(S'signal'
p4888
F0.001251637885514247
tp4889
a(S'try'
p4890
F0.001241859464533667
tp4891
a(S'seen'
p4892
F0.001241859464533667
tp4893
a(S'actually'
p4894
F0.001232081043553087
tp4895
a(S'between'
p4896
F0.001222302622572507
tp4897
a(S'box'
p4898
F0.001222302622572507
tp4899
a(S'back'
p4900
F0.001202745780611347
tp4901
a(S'bit'
p4902
F0.0011929673596307669
tp4903
a(S'company'
p4904
F0.0011831889386501868
tp4905
a(g474
F0.0011734105176696068
tp4906
a(S'take'
p4907
F0.0011636320966890267
tp4908
a(S'things'
p4909
F0.0011538536757084467
tp4910
a(S'world'
p4911
F0.0011440752547278664
tp4912
a(S'few'
p4913
F0.0011440752547278664
tp4914
a(S'cable'
p4915
F0.0011342968337472864
tp4916
a(S'computer'
p4917
F0.0011342968337472864
tp4918
a(S'possible'
p4919
F0.0011245184127667064
tp4920
a(S'low'
p4921
F0.0011245184127667064
tp4922
a(S'through'
p4923
F0.0011245184127667064
tp4924
a(S'detector'
p4925
F0.0011147399917861263
tp4926
a(S'better'
p4927
F0.0011147399917861263
tp4928
a(S'buy'
p4929
F0.0011147399917861263
tp4930
a(S'supply'
p4931
F0.0011147399917861263
tp4932
a(S'going'
p4933
F0.0011049615708055463
tp4934
a(S'input'
p4935
F0.0011049615708055463
tp4936
a(S'radar'
p4937
F0.0010951831498249662
tp4938
a(S'each'
p4939
F0.0010951831498249662
tp4940
a(S'long'
p4941
F0.0010854047288443862
tp4942
a(S'water'
p4943
F0.0010854047288443862
tp4944
a(S'mhz'
p4945
F0.0010756263078638062
tp4946
a(S'noise'
p4947
F0.0010756263078638062
tp4948
a(S'right'
p4949
F0.0010658478868832261
tp4950
a(S'circuits'
p4951
F0.001056069465902646
tp4952
a(S'lead'
p4953
F0.001056069465902646
tp4954
a(S'being'
p4955
F0.001046291044922066
tp4956
a(S'first'
p4957
F0.001046291044922066
tp4958
a(S'protection'
p4959
F0.001036512623941486
tp4960
a(S'info'
p4961
F0.001036512623941486
tp4962
a(S'batteries'
p4963
F0.001036512623941486
tp4964
a(S'design'
p4965
F0.001026734202960906
tp4966
a(S'look'
p4967
F0.001016955781980326
tp4968
a(S'down'
p4969
F0.001016955781980326
tp4970
a(S'light'
p4971
F0.001016955781980326
tp4972
a(S'usually'
p4973
F0.0010071773609997457
tp4974
a(S'read'
p4975
F0.0009973989400191656
tp4976
a(S'lot'
p4977
F0.0009973989400191656
tp4978
a(g430
F0.0009876205190385856
tp4979
a(S'part'
p4980
F0.0009876205190385856
tp4981
a(S'build'
p4982
F0.0009876205190385856
tp4983
a(S'neutral'
p4984
F0.0009876205190385856
tp4985
a(S'device'
p4986
F0.0009778420980580055
tp4987
a(S'someone'
p4988
F0.0009778420980580055
tp4989
a(S'both'
p4990
F0.0009680636770774255
tp4991
a(S'equipment'
p4992
F0.0009582852560968455
tp4993
a(S'heat'
p4994
F0.0009582852560968455
tp4995
a(S'board'
p4996
F0.0009485068351162654
tp4997
a(S'different'
p4998
F0.0009485068351162654
tp4999
a(S'made'
p5000
F0.0009485068351162654
tp5001
a(S'best'
p5002
F0.0009289499931551053
tp5003
a(S'years'
p5004
F0.0009289499931551053
tp5005
a(S'digital'
p5006
F0.0009289499931551053
tp5007
a(S'point'
p5008
F0.0009191715721745253
tp5009
a(S'concrete'
p5010
F0.0009093931511939452
tp5011
a(S'go'
p5012
F0.0009093931511939452
tp5013
a(S'without'
p5014
F0.0009093931511939452
tp5015
a(S'usa'
p5016
F0.0009093931511939452
tp5017
a(S'stuff'
p5018
F0.0008996147302133651
tp5019
a(S'another'
p5020
F0.0008996147302133651
tp5021
a(S'hot'
p5022
F0.0008996147302133651
tp5023
a(S'temperature'
p5024
F0.0008996147302133651
tp5025
a(S'anything'
p5026
F0.0008898363092327851
tp5027
a(S'led'
p5028
F0.0008898363092327851
tp5029
a(S'tape'
p5030
F0.000880057888252205
tp5031
a(S'car'
p5032
F0.000880057888252205
tp5033
a(S'electrical'
p5034
F0.000880057888252205
tp5035
a(S'drive'
p5036
F0.000870279467271625
tp5037
a(S'enough'
p5038
F0.000870279467271625
tp5039
a(S'pc'
p5040
F0.000870279467271625
tp5041
a(S'internet'
p5042
F0.000860501046291045
tp5043
a(S'found'
p5044
F0.000860501046291045
tp5045
a(S'boards'
p5046
F0.000860501046291045
tp5047
a(S'small'
p5048
F0.0008507226253104649
tp5049
a(S'keywords'
p5050
F0.0008311657833493047
tp5051
a(S'connected'
p5052
F0.0008311657833493047
tp5053
a(S'though'
p5054
F0.0008311657833493047
tp5055
a(S'kind'
p5056
F0.0008311657833493047
tp5057
a(S'course'
p5058
F0.0008213873623687247
tp5059
a(S'protected'
p5060
F0.0008213873623687247
tp5061
a(S'wires'
p5062
F0.0008116089413881446
tp5063
a(S'pin'
p5064
F0.0008116089413881446
tp5065
a(S'never'
p5066
F0.0008116089413881446
tp5067
a(S'tell'
p5068
F0.0008116089413881446
tp5069
a(S'source'
p5070
F0.0008116089413881446
tp5071
a(S'outlets'
p5072
F0.0008018305204075646
tp5073
a(S'cheap'
p5074
F0.0008018305204075646
tp5075
a(S'seems'
p5076
F0.0008018305204075646
tp5077
a(S'second'
p5078
F0.0007920520994269846
tp5079
a(S'devices'
p5080
F0.0007920520994269846
tp5081
a(S'available'
p5082
F0.0007920520994269846
tp5083
a(S'sound'
p5084
F0.0007920520994269846
tp5085
a(S'blue'
p5086
F0.0007920520994269846
tp5087
a(S'fax'
p5088
F0.0007822736784464045
tp5089
a(S'air'
p5090
F0.0007822736784464045
tp5091
a(S'wondering'
p5092
F0.0007724952574658244
tp5093
a(S'anybody'
p5094
F0.0007627168364852443
tp5095
a(S'idea'
p5096
F0.0007529384155046643
tp5097
a(S'disks'
p5098
F0.0007529384155046643
tp5099
a(S'code'
p5100
F0.0007431599945240843
tp5101
a(S'remember'
p5102
F0.0007431599945240843
tp5103
a(S'yes'
p5104
F0.0007431599945240843
tp5105
a(S'mail'
p5106
F0.0007431599945240843
tp5107
a(S'case'
p5108
F0.0007431599945240843
tp5109
a(S'needed'
p5110
F0.0007333815735435042
tp5111
a(S'less'
p5112
F0.0007333815735435042
tp5113
a(S'end'
p5114
F0.0007333815735435042
tp5115
a(S'receiver'
p5116
F0.0007236031525629242
tp5117
a(S'several'
p5118
F0.0007236031525629242
tp5119
a(S'cooling'
p5120
F0.0007236031525629242
tp5121
a(S'chips'
p5122
F0.0007236031525629242
tp5123
a(S'interested'
p5124
F0.0007138247315823441
tp5125
a(S'call'
p5126
F0.0007138247315823441
tp5127
a(S'type'
p5128
F0.0007138247315823441
tp5129
a(S'under'
p5130
F0.0007138247315823441
tp5131
a(S'goes'
p5132
F0.0007138247315823441
tp5133
a(S'called'
p5134
F0.0007138247315823441
tp5135
a(S'ones'
p5136
F0.0007138247315823441
tp5137
a(S'send'
p5138
F0.000704046310601764
tp5139
a(S'video'
p5140
F0.000704046310601764
tp5141
a(S'nuclear'
p5142
F0.000704046310601764
tp5143
a(S'electronic'
p5144
F0.000704046310601764
tp5145
a(S'hard'
p5146
F0.000704046310601764
tp5147
aa(lp5148
(g12
F0.005408059753568221
tp5149
a(S'medical'
p5150
F0.0032887722993622756
tp5151
a(S'know'
p5152
F0.0032887722993622756
tp5153
a(S'people'
p5154
F0.0031530862123551875
tp5155
a(S'use'
p5156
F0.002952787702963772
tp5157
a(S'health'
p5158
F0.002494039504035046
tp5159
a(S'disease'
p5160
F0.002461733292842882
tp5161
a(S'time'
p5162
F0.0024165045971738528
tp5163
a(S'msg'
p5164
F0.0022872797524051973
tp5165
a(S'good'
p5166
F0.0022614347834514666
tp5167
a(S'cancer'
p5168
F0.002242051056736168
tp5169
a(S'think'
p5170
F0.0021968223610671386
tp5171
a(S'patients'
p5172
F0.002190361118828706
tp5173
a(S'new'
p5174
F0.002061136274060051
tp5175
a(S'information'
p5176
F0.0019642176404835593
tp5177
a(S'well'
p5178
F0.0018414540379533368
tp5179
a(S'food'
p5180
F0.0018026865845227403
tp5181
a(S'years'
p5182
F0.0017639191310921437
tp5183
a(S'help'
p5184
F0.0017509966466152784
tp5185
a(S'treatment'
p5186
F0.0017122291931846816
tp5187
a(S'doctor'
p5188
F0.0017122291931846816
tp5189
a(S'research'
p5190
F0.001705767950946249
tp5191
a(S'anyone'
p5192
F0.0016670004975156525
tp5193
a(S'used'
p5194
F0.001595926832892892
tp5195
a(S'way'
p5196
F0.0015506981372238626
tp5197
a(S'science'
p5198
F0.0014667019881242367
tp5199
a(S'see'
p5200
F0.001460240745885804
tp5201
a(S'medicine'
p5202
F0.0014537795036473713
tp5203
a(S'diet'
p5204
F0.0014473182614089385
tp5205
a(S'number'
p5206
F0.0014408570191705057
tp5207
a(S'cause'
p5208
F0.0014279345346936401
tp5209
a(S'problem'
p5210
F0.0014279345346936401
tp5211
a(S'those'
p5212
F0.0014150120502167747
tp5213
a(S'take'
p5214
F0.0014020895657399092
tp5215
a(S'work'
p5216
F0.0013827058390246108
tp5217
a(S'first'
p5218
F0.0013827058390246108
tp5219
a(S'distribution'
p5220
F0.0013633221123093126
tp5221
a(S'without'
p5222
F0.0013633221123093126
tp5223
a(S'study'
p5224
F0.0013374771433555816
tp5225
a(S'being'
p5226
F0.001324554658878716
tp5227
a(S'really'
p5228
F0.0013116321744018505
tp5229
a(S'vitamin'
p5230
F0.0013116321744018505
tp5231
a(S'make'
p5232
F0.0013051709321634177
tp5233
a(S'something'
p5234
F0.001298709689924985
tp5235
a(S'day'
p5236
F0.0012793259632096867
tp5237
a(S'back'
p5238
F0.001272864720971254
tp5239
a(S'pain'
p5240
F0.0012599422364943883
tp5241
a(S'water'
p5242
F0.0012534809942559557
tp5243
a(S'here'
p5244
F0.001247019752017523
tp5245
a(S'hiv'
p5246
F0.001247019752017523
tp5247
a(S'candida'
p5248
F0.0012405585097790901
tp5249
a(S'over'
p5250
F0.0012276360253022246
tp5251
a(S'aids'
p5252
F0.0012147135408253592
tp5253
a(S'effects'
p5254
F0.0011953298141100608
tp5255
a(S'same'
p5256
F0.001188868571871628
tp5257
a(S'few'
p5258
F0.0011824073296331952
tp5259
a(S'body'
p5260
F0.0011759460873947624
tp5261
a(S'infection'
p5262
F0.0011501011184410314
tp5263
a(S'need'
p5264
F0.0011436398762025987
tp5265
a(S'long'
p5266
F0.0011436398762025987
tp5267
a(S'email'
p5268
F0.0011307173917257333
tp5269
a(S'drug'
p5270
F0.0011307173917257333
tp5271
a(S'through'
p5272
F0.0011242561494873005
tp5273
a(S'want'
p5274
F0.0011177949072488677
tp5275
a(S'studies'
p5276
F0.001111333665010435
tp5277
a(S'world'
p5278
F0.001104872422772002
tp5279
a(g214
F0.001104872422772002
tp5280
a(S'find'
p5281
F0.0010984111805335693
tp5282
a(S'clinical'
p5283
F0.0010919499382951367
tp5284
a(S'still'
p5285
F0.0010919499382951367
tp5286
a(S'go'
p5287
F0.0010725662115798383
tp5288
a(S'believe'
p5289
F0.0010661049693414055
tp5290
a(S'seems'
p5291
F0.0010661049693414055
tp5292
a(S'problems'
p5293
F0.0010596437271029728
tp5294
a(S'between'
p5295
F0.00105318248486454
tp5296
a(S'symptoms'
p5297
F0.0010467212426261074
tp5298
a(S'anything'
p5299
F0.0010402600003876746
tp5300
a(S'evidence'
p5301
F0.0010337987581492418
tp5302
a(S'case'
p5303
F0.0010337987581492418
tp5304
a(S'effect'
p5305
F0.001027337515910809
tp5306
a(S'patient'
p5307
F0.001027337515910809
tp5308
a(S'read'
p5309
F0.0010208762736723762
tp5310
a(S'question'
p5311
F0.0010079537891955108
tp5312
a(S'system'
p5313
F0.001001492546957078
tp5314
a(S'never'
p5315
F0.001001492546957078
tp5316
a(S'yeast'
p5317
F0.001001492546957078
tp5318
a(S'sure'
p5319
F0.001001492546957078
tp5320
a(S'april'
p5321
F0.001001492546957078
tp5322
a(S'available'
p5323
F0.0009950313047186452
tp5324
a(S'enough'
p5325
F0.0009950313047186452
tp5326
a(S'dr'
p5327
F0.0009821088202417796
tp5328
a(S'thanks'
p5329
F0.0009821088202417796
tp5330
a(S'please'
p5331
F0.0009821088202417796
tp5332
a(S'both'
p5333
F0.000975647578003347
tp5334
a(S'better'
p5335
F0.000975647578003347
tp5336
a(S'part'
p5337
F0.000975647578003347
tp5338
a(S'high'
p5339
F0.0009691863357649142
tp5340
a(S'having'
p5341
F0.0009627250935264814
tp5342
a(S'blood'
p5343
F0.0009562638512880487
tp5344
a(S'try'
p5345
F0.0009498026090496159
tp5346
a(S'before'
p5347
F0.0009498026090496159
tp5348
a(S'probably'
p5349
F0.0009433413668111831
tp5350
a(S'found'
p5351
F0.0009368801245727504
tp5352
a(S'scientific'
p5353
F0.0009239576400958848
tp5354
a(S'using'
p5355
F0.0009239576400958848
tp5356
a(S'done'
p5357
F0.000917496397857452
tp5358
a(S'going'
p5359
F0.0009110351556190193
tp5360
a(S'year'
p5361
F0.0009110351556190193
tp5362
a(S'during'
p5363
F0.0009110351556190193
tp5364
a(S'another'
p5365
F0.0009045739133805865
tp5366
a(S'lot'
p5367
F0.0008916514289037211
tp5368
a(S'care'
p5369
F0.0008851901866652883
tp5370
a(S'doctors'
p5371
F0.0008851901866652883
tp5372
a(S'chronic'
p5373
F0.0008851901866652883
tp5374
a(S'risk'
p5375
F0.0008851901866652883
tp5376
a(S'syndrome'
p5377
F0.0008851901866652883
tp5378
a(S'right'
p5379
F0.0008787289444268555
tp5380
a(S'info'
p5381
F0.0008787289444268555
tp5382
a(S'national'
p5383
F0.0008787289444268555
tp5384
a(S'things'
p5385
F0.0008722677021884228
tp5386
a(S'thing'
p5387
F0.0008722677021884228
tp5388
a(S'fact'
p5389
F0.00086580645994999
tp5390
a(S'different'
p5391
F0.0008528839754731245
tp5392
a(S'taking'
p5393
F0.0008528839754731245
tp5394
a(S'course'
p5395
F0.0008464227332346917
tp5396
a(S'general'
p5397
F0.0008464227332346917
tp5398
a(S'each'
p5399
F0.0008464227332346917
tp5400
a(S'someone'
p5401
F0.0008464227332346917
tp5402
a(S'little'
p5403
F0.0008399614909962589
tp5404
a(S'newsletter'
p5405
F0.0008399614909962589
tp5406
a(S'less'
p5407
F0.0008335002487578262
tp5408
a(S'months'
p5409
F0.0008335002487578262
tp5410
a(S'group'
p5411
F0.0008335002487578262
tp5412
a(S'weight'
p5413
F0.0008335002487578262
tp5414
a(S'normal'
p5415
F0.0008270390065193934
tp5416
a(S'point'
p5417
F0.0008270390065193934
tp5418
a(S'called'
p5419
F0.0008205777642809606
tp5420
a(S'best'
p5421
F0.000814116522042528
tp5422
a(S'person'
p5423
F0.000814116522042528
tp5424
a(S'page'
p5425
F0.0008076552798040952
tp5426
a(S'drugs'
p5427
F0.0008076552798040952
tp5428
a(S'possible'
p5429
F0.0008011940375656624
tp5430
a(S'foods'
p5431
F0.0008011940375656624
tp5432
a(S'photography'
p5433
F0.0008011940375656624
tp5434
a(S'etc'
p5435
F0.0007882715530887969
tp5436
a(S'give'
p5437
F0.0007882715530887969
tp5438
a(g474
F0.0007882715530887969
tp5439
a(S'volume'
p5440
F0.0007753490686119313
tp5441
a(S'made'
p5442
F0.0007753490686119313
tp5443
a(S'last'
p5444
F0.0007688878263734986
tp5445
a(S'human'
p5446
F0.0007688878263734986
tp5447
a(S'common'
p5448
F0.0007688878263734986
tp5449
a(S'getting'
p5450
F0.0007688878263734986
tp5451
a(S'quite'
p5452
F0.000755965341896633
tp5453
a(S'gordon'
p5454
F0.000755965341896633
tp5455
a(S'data'
p5456
F0.0007495040996582003
tp5457
a(S'results'
p5458
F0.0007495040996582003
tp5459
a(S'tell'
p5460
F0.0007495040996582003
tp5461
a(S'diseases'
p5462
F0.0007495040996582003
tp5463
a(S'test'
p5464
F0.0007430428574197675
tp5465
a(S'kidney'
p5466
F0.0007430428574197675
tp5467
a(S'center'
p5468
F0.0007430428574197675
tp5469
a(S'cases'
p5470
F0.0007430428574197675
tp5471
a(S'nothing'
p5472
F0.0007430428574197675
tp5473
a(S'soon'
p5474
F0.0007365816151813347
tp5475
a(S'ago'
p5476
F0.0007236591307044693
tp5477
a(S'post'
p5478
F0.0007236591307044693
tp5479
a(S'maybe'
p5480
F0.0007236591307044693
tp5481
a(S'public'
p5482
F0.0007236591307044693
tp5483
a(S'great'
p5484
F0.0007171978884660365
tp5485
a(S'told'
p5486
F0.0007171978884660365
tp5487
a(S'women'
p5488
F0.0007171978884660365
tp5489
a(S'hicnet'
p5490
F0.0007107366462276038
tp5491
a(S'infections'
p5492
F0.000704275403989171
tp5493
a(S'experience'
p5494
F0.000704275403989171
tp5495
a(S'eat'
p5496
F0.000704275403989171
tp5497
a(S'though'
p5498
F0.000704275403989171
tp5499
a(S'actually'
p5500
F0.0006978141617507382
tp5501
a(S'seem'
p5502
F0.0006978141617507382
tp5503
a(S'program'
p5504
F0.0006978141617507382
tp5505
a(S'usually'
p5506
F0.0006913529195123054
tp5507
a(S'surgery'
p5508
F0.0006848916772738727
tp5509
a(S'heard'
p5510
F0.0006848916772738727
tp5511
a(S'control'
p5512
F0.0006848916772738727
tp5513
a(S'keep'
p5514
F0.0006848916772738727
tp5515
a(S'important'
p5516
F0.0006784304350354399
tp5517
a(S'school'
p5518
F0.0006784304350354399
tp5519
a(S'days'
p5520
F0.0006784304350354399
tp5521
a(S'whether'
p5522
F0.0006784304350354399
tp5523
a(S'down'
p5524
F0.0006719691927970071
tp5525
a(S'again'
p5526
F0.0006719691927970071
tp5527
a(S'type'
p5528
F0.0006655079505585744
tp5529
a(S'side'
p5530
F0.0006655079505585744
tp5531
a(S'skin'
p5532
F0.0006655079505585744
tp5533
a(S'states'
p5534
F0.0006590467083201416
tp5535
a(S'effective'
p5536
F0.0006525854660817088
tp5537
a(S'around'
p5538
F0.0006525854660817088
tp5539
a(S'keyboard'
p5540
F0.0006525854660817088
tp5541
a(S'fat'
p5542
F0.0006525854660817088
tp5543
a(S'questions'
p5544
F0.0006525854660817088
tp5545
aa(lp5546
(S'space'
p5547
F0.010506269663065927
tp5548
a(g12
F0.007173601147776184
tp5549
a(S'launch'
p5550
F0.00302384981117023
tp5551
a(S'nasa'
p5552
F0.0028630067361079836
tp5553
a(S'orbit'
p5554
F0.0026635613230307983
tp5555
a(S'shuttle'
p5556
F0.002637826431020839
tp5557
a(S'earth'
p5558
F0.0025155856939735317
tp5559
a(S'moon'
p5560
F0.0025091519709710417
tp5561
a(S'system'
p5562
F0.0024834170789610824
tp5563
a(S'first'
p5564
F0.0024448147409461434
tp5565
a(S'mission'
p5566
F0.0024190798489361837
tp5567
a(S'time'
p5568
F0.002386911233923735
tp5569
a(S'new'
p5570
F0.0023354414499038158
tp5571
a(S'think'
p5572
F0.0023161402808963465
tp5573
a(S'data'
p5574
F0.0021102611448166712
tp5575
a(S'people'
p5576
F0.0020459239147917726
tp5577
a(S'know'
p5578
F0.0020201890227818133
tp5579
a(S'solar'
p5580
F0.0019558517927569146
tp5581
a(S'spacecraft'
p5582
F0.0019236831777444654
tp5583
a(S'satellite'
p5584
F0.0019043820087369958
tp5585
a(S'distribution'
p5586
F0.001852912224717077
tp5587
a(S'see'
p5588
F0.0018078761636996482
tp5589
a(S'program'
p5590
F0.0017499726566772395
tp5591
a(S'use'
p5592
F0.0016856354266523408
tp5593
a(S'years'
p5594
F0.0016727679806473612
tp5595
a(S'sky'
p5596
F0.0016727679806473612
tp5597
a(S'make'
p5598
F0.0016534668116398917
tp5599
a(S'world'
p5600
F0.0016405993656349119
tp5601
a(S'well'
p5602
F0.001634165642632422
tp5603
a(S'lunar'
p5604
F0.001595563304617483
tp5605
a(S'way'
p5606
F0.001550527243600054
tp5607
a(S'good'
p5608
F0.0015376597975950744
tp5609
a(S'work'
p5610
F0.0015183586285876047
tp5611
a(S'science'
p5612
F0.0014926237365776454
tp5613
a(S'station'
p5614
F0.001428286506552747
tp5615
a(S'mars'
p5616
F0.001428286506552747
tp5617
a(S'those'
p5618
F0.0014025516145427875
tp5619
a(S'something'
p5620
F0.001383250445535318
tp5621
a(S'cost'
p5622
F0.0013703829995303381
tp5623
a(S'hst'
p5624
F0.0013703829995303381
tp5625
a(S'year'
p5626
F0.0013639492765278483
tp5627
a(S'being'
p5628
F0.0013510818305228686
tp5629
a(S'information'
p5630
F0.0013446481075203788
tp5631
a(S'around'
p5632
F0.0013124794925079295
tp5633
a(S'high'
p5634
F0.0012996120465029498
tp5635
a(S'part'
p5636
F0.00129317832350046
tp5637
a(S'back'
p5638
F0.0012803108774954804
tp5639
a(S'things'
p5640
F0.0012545759854855208
tp5641
a(S'power'
p5642
F0.001248142262483031
tp5643
a(S'need'
p5644
F0.001248142262483031
tp5645
a(S'long'
p5646
F0.001248142262483031
tp5647
a(S'project'
p5648
F0.0012417085394805412
tp5649
a(S'available'
p5650
F0.0012417085394805412
tp5651
a(S'large'
p5652
F0.0012352748164780514
tp5653
a(S'flight'
p5654
F0.0012288410934755615
tp5655
a(S'research'
p5656
F0.0012224073704730717
tp5657
a(S'go'
p5658
F0.0012095399244680918
tp5659
a(S'enough'
p5660
F0.0011838050324581325
tp5661
a(S'want'
p5662
F0.001164503863450663
tp5663
a(S'over'
p5664
F0.0011580701404481732
tp5665
a(S'going'
p5666
F0.0011516364174456832
tp5667
a(S'technology'
p5668
F0.0011516364174456832
tp5669
a(S'still'
p5670
F0.0011452026944431934
tp5671
a(S'find'
p5672
F0.0011452026944431934
tp5673
a(S'before'
p5674
F0.0011387689714407036
tp5675
a(S'few'
p5676
F0.0011323352484382137
tp5677
a(S'used'
p5678
F0.001125901525435724
tp5679
a(S'venus'
p5680
F0.001125901525435724
tp5681
a(S'here'
p5682
F0.0011066003564282544
tp5683
a(S'idea'
p5684
F0.0011001666334257644
tp5685
a(S'anyone'
p5686
F0.0010615642954108254
tp5687
a(g811
F0.0010551305724083356
tp5688
a(S'better'
p5689
F0.0010486968494058456
tp5690
a(S'right'
p5691
F0.0010486968494058456
tp5692
a(S'surface'
p5693
F0.0010486968494058456
tp5694
a(S'small'
p5695
F0.0010229619573958863
tp5696
a(S'billion'
p5697
F0.0010165282343933965
tp5698
a(S'through'
p5699
F0.0010165282343933965
tp5700
a(S'center'
p5701
F0.0010165282343933965
tp5702
a(S'atmosphere'
p5703
F0.0010100945113909066
tp5704
a(S'software'
p5705
F0.0010036607883884168
tp5706
a(S'same'
p5707
F0.0010036607883884168
tp5708
a(S'light'
p5709
F0.000997227065385927
tp5710
a(S'put'
p5711
F0.000990793342383437
tp5712
a(S'planet'
p5713
F0.000990793342383437
tp5714
a(S'using'
p5715
F0.0009843596193809471
tp5716
a(S'life'
p5717
F0.0009779258963784573
tp5718
a(S'down'
p5719
F0.0009779258963784573
tp5720
a(S'astronomy'
p5721
F0.0009779258963784573
tp5722
a(S'mass'
p5723
F0.0009650584503734776
tp5724
a(S'during'
p5725
F0.0009650584503734776
tp5726
a(S'money'
p5727
F0.0009650584503734776
tp5728
a(S'satellites'
p5729
F0.0009650584503734776
tp5730
a(S'systems'
p5731
F0.0009586247273709878
tp5732
a(S'missions'
p5733
F0.0009586247273709878
tp5734
a(S'april'
p5735
F0.0009586247273709878
tp5736
a(S'rocket'
p5737
F0.0009586247273709878
tp5738
a(S'between'
p5739
F0.000945757281366008
tp5740
a(S'days'
p5741
F0.0009328898353610284
tp5742
a(S'commercial'
p5743
F0.0009264561123585385
tp5744
a(S'really'
p5745
F0.0009200223893560486
tp5746
a(S'look'
p5747
F0.0009135886663535588
tp5748
a(S'give'
p5749
F0.0009135886663535588
tp5750
a(S'design'
p5751
F0.000907154943351069
tp5752
a(S'made'
p5753
F0.000907154943351069
tp5754
a(S'big'
p5755
F0.0009007212203485791
tp5756
a(S'problem'
p5757
F0.0008942874973460892
tp5758
a(S'orbital'
p5759
F0.0008878537743435994
tp5760
a(S'images'
p5761
F0.0008878537743435994
tp5762
a(S'real'
p5763
F0.0008814200513411096
tp5764
a(S'support'
p5765
F0.0008685526053361298
tp5766
a(S'development'
p5767
F0.00086211888233364
tp5768
a(S'probably'
p5769
F0.00086211888233364
tp5770
a(S'little'
p5771
F0.00086211888233364
tp5772
a(S'national'
p5773
F0.00086211888233364
tp5774
a(S'sun'
p5775
F0.00086211888233364
tp5776
a(S'point'
p5777
F0.00086211888233364
tp5778
a(S'email'
p5779
F0.0008492514363286604
tp5780
a(S'planetary'
p5781
F0.0008492514363286604
tp5782
a(S'different'
p5783
F0.0008492514363286604
tp5784
a(S'propulsion'
p5785
F0.0008492514363286604
tp5786
a(g4218
F0.0008492514363286604
tp5787
a(S'last'
p5788
F0.0008428177133261704
tp5789
a(S'each'
p5790
F0.0008428177133261704
tp5791
a(S'another'
p5792
F0.0008299502673211908
tp5793
a(S'vehicle'
p5794
F0.0008299502673211908
tp5795
a(S'actually'
p5796
F0.000823516544318701
tp5797
a(S'someone'
p5798
F0.000823516544318701
tp5799
a(S'government'
p5800
F0.000817082821316211
tp5801
a(S'jupiter'
p5802
F0.0008106490983137212
tp5803
a(S'pat'
p5804
F0.0008106490983137212
tp5805
a(S'dcx'
p5806
F0.0008042153753112314
tp5807
a(S'degrees'
p5808
F0.0008042153753112314
tp5809
a(S'both'
p5810
F0.0008042153753112314
tp5811
a(S'maybe'
p5812
F0.0008042153753112314
tp5813
a(S'far'
p5814
F0.0008042153753112314
tp5815
a(S'done'
p5816
F0.0007977816523087415
tp5817
a(S'please'
p5818
F0.0007977816523087415
tp5819
a(S'sure'
p5820
F0.0007977816523087415
tp5821
a(S'question'
p5822
F0.0007977816523087415
tp5823
a(S'etc'
p5824
F0.0007849142063037618
tp5825
a(S'general'
p5826
F0.000778480483301272
tp5827
a(S'possible'
p5828
F0.0007720467602987821
tp5829
a(S'next'
p5830
F0.0007720467602987821
tp5831
a(S'air'
p5832
F0.0007720467602987821
tp5833
a(S'thing'
p5834
F0.0007720467602987821
tp5835
a(S'field'
p5836
F0.0007720467602987821
tp5837
a(S'times'
p5838
F0.0007656130372962922
tp5839
a(S'course'
p5840
F0.0007591793142938024
tp5841
a(S'three'
p5842
F0.0007591793142938024
tp5843
a(S'day'
p5844
F0.0007527455912913125
tp5845
a(S'planets'
p5846
F0.0007527455912913125
tp5847
a(S'read'
p5848
F0.0007463118682888227
tp5849
a(S'several'
p5850
F0.000733444422283843
tp5851
a(S'gamma'
p5852
F0.000733444422283843
tp5853
a(S'probe'
p5854
F0.0007141432532763735
tp5855
a(S'called'
p5856
F0.0007141432532763735
tp5857
a(S'internet'
p5858
F0.0007077095302738836
tp5859
a(S'command'
p5860
F0.0007077095302738836
tp5861
a(S'keywords'
p5862
F0.0007077095302738836
tp5863
a(S'night'
p5864
F0.0007077095302738836
tp5865
a(S'comet'
p5866
F0.0007077095302738836
tp5867
a(S'telescope'
p5868
F0.0007012758072713937
tp5869
a(S'take'
p5870
F0.0007012758072713937
tp5871
a(S'energy'
p5872
F0.0007012758072713937
tp5873
a(S'news'
p5874
F0.0007012758072713937
tp5875
a(S'given'
p5876
F0.0007012758072713937
tp5877
a(g474
F0.0006948420842689039
tp5878
a(S'human'
p5879
F0.0006884083612664141
tp5880
a(S'without'
p5881
F0.0006884083612664141
tp5882
a(S'found'
p5883
F0.0006819746382639241
tp5884
a(S'low'
p5885
F0.0006819746382639241
tp5886
a(S'never'
p5887
F0.0006819746382639241
tp5888
a(S'henry'
p5889
F0.0006819746382639241
tp5890
a(S'order'
p5891
F0.0006755409152614343
tp5892
a(S'launched'
p5893
F0.0006755409152614343
tp5894
a(S'lot'
p5895
F0.0006691071922589445
tp5896
a(S'radio'
p5897
F0.0006691071922589445
tp5898
a(S'ray'
p5899
F0.0006626734692564547
tp5900
a(S'place'
p5901
F0.0006626734692564547
tp5902
a(S'send'
p5903
F0.0006562397462539647
tp5904
a(S'remember'
p5905
F0.0006562397462539647
tp5906
a(S'exploration'
p5907
F0.0006562397462539647
tp5908
a(S'current'
p5909
F0.0006498060232514749
tp5910
a(S'less'
p5911
F0.0006498060232514749
tp5912
a(S'test'
p5913
F0.0006498060232514749
tp5914
a(S'believe'
p5915
F0.0006498060232514749
tp5916
a(S'problems'
p5917
F0.0006433723002489851
tp5918
a(S'million'
p5919
F0.0006369385772464953
tp5920
a(S'anything'
p5921
F0.0006369385772464953
tp5922
a(S'international'
p5923
F0.0006369385772464953
tp5924
a(S'end'
p5925
F0.0006369385772464953
tp5926
a(g1144
F0.0006305048542440053
tp5927
a(S'number'
p5928
F0.0006240711312415155
tp5929
a(S'try'
p5930
F0.0006240711312415155
tp5931
a(S'e'
p5932
F0.0006240711312415155
tp5933
a(S'under'
p5934
F0.0006240711312415155
tp5935
a(S'known'
p5936
F0.0006240711312415155
tp5937
a(S'second'
p5938
F0.0006176374082390257
tp5939
a(S'including'
p5940
F0.0006176374082390257
tp5941
aa(lp5942
(S'god'
p5943
F0.011251017909670558
tp5944
a(S'people'
p5945
F0.005733532021914833
tp5946
a(g12
F0.005207265797681105
tp5947
a(S'jesus'
p5948
F0.004326462327647811
tp5949
a(S'church'
p5950
F0.004276605527457248
tp5951
a(S'think'
p5952
F0.004104876549023083
tp5953
a(S'know'
p5954
F0.003944226859520156
tp5955
a(S'believe'
p5956
F0.0037004825030329553
tp5957
a(S'christians'
p5958
F0.003495515657805082
tp5959
a(S'christian'
p5960
F0.003357024546164627
tp5961
a(S'christ'
p5962
F0.0033293263238365362
tp5963
a(S'bible'
p5964
F0.003207454145592936
tp5965
a(S'being'
p5966
F0.0031409784120055174
tp5967
a(S'see'
p5968
F0.0030800423228837174
tp5969
a(S'those'
p5970
F0.003013566589296299
tp5971
a(S'time'
p5972
F0.002952630500174499
tp5973
a(S'sin'
p5974
F0.0029193926333807895
tp5975
a(S'faith'
p5976
F0.002836297966396517
tp5977
a(S'way'
p5978
F0.0024873003650625705
tp5979
a(S'question'
p5980
F0.002393126409147061
tp5981
a(S'life'
p5982
F0.0023765074757502065
tp5983
a(S'christianity'
p5984
F0.0023321903200252607
tp5985
a(S'good'
p5986
F0.002276793875369079
tp5987
a(S'love'
p5988
F0.0022103181417816604
tp5989
a(S'things'
p5990
F0.002138302763728624
tp5991
a(S'new'
p5992
F0.001999811652088169
tp5993
a(S'hell'
p5994
F0.0019277962740351323
tp5995
a(S'truth'
p5996
F0.001883479118310187
tp5997
a(S'man'
p5998
F0.0018668601849133322
tp5999
a(S'here'
p6000
F0.0018557808959820958
tp6001
a(S'paul'
p6002
F0.0018336223181196231
tp6003
a(S'word'
p6004
F0.0018003844513259138
tp6005
a(S'something'
p6006
F0.0018003844513259138
tp6007
a(S'homosexuality'
p6008
F0.0017948448068602957
tp6009
a(S'same'
p6010
F0.0017837655179290593
tp6011
a(S'come'
p6012
F0.0017782258734634411
tp6013
a(S'through'
p6014
F0.001772686228997823
tp6015
a(S'make'
p6016
F0.0017560672956009682
tp6017
a(S'well'
p6018
F0.0017394483622041137
tp6019
a(S'find'
p6020
F0.0017394483622041137
tp6021
a(S'point'
p6022
F0.0017339087177384955
tp6023
a(S'never'
p6024
F0.0017283690732728773
tp6025
a(S'true'
p6026
F0.0017117501398760228
tp6027
a(S'really'
p6028
F0.0017006708509447865
tp6029
a(S'world'
p6030
F0.001695131206479168
tp6031
a(S'before'
p6032
F0.00168959156201355
tp6033
a(S'lord'
p6034
F0.0016729726286166954
tp6035
a(S'both'
p6036
F0.001634195117357368
tp6037
a(S'law'
p6038
F0.0016286554728917498
tp6039
a(S'first'
p6040
F0.0016009572505636589
tp6041
a(S'fact'
p6042
F0.0015677193837699496
tp6043
a(S'human'
p6044
F0.0015566400948387132
tp6045
a(S'part'
p6046
F0.0015400211614418587
tp6047
a(S'reason'
p6048
F0.0015289418725106224
tp6049
a(S'scripture'
p6050
F0.0015289418725106224
tp6051
a(S'without'
p6052
F0.001523402228045004
tp6053
a(S'read'
p6054
F0.001490164361251295
tp6055
a(S'want'
p6056
F0.0014624661389232038
tp6057
a(S'day'
p6058
F0.0014624661389232038
tp6059
a(S'wrong'
p6060
F0.0014513868499919675
tp6061
a(S'others'
p6062
F0.0014513868499919675
tp6063
a(S'catholic'
p6064
F0.0014403075610607311
tp6065
a(S'mean'
p6066
F0.001434767916595113
tp6067
a(S'right'
p6068
F0.0014181489831982584
tp6069
a(S'heaven'
p6070
F0.0014181489831982584
tp6071
a(S'seems'
p6072
F0.0014015300498014037
tp6073
a(S'use'
p6074
F0.0013959904053357855
tp6075
a(S'need'
p6076
F0.0013904507608701673
tp6077
a(S'made'
p6078
F0.0013738318274733128
tp6079
a(S'go'
p6080
F0.0013516732496108399
tp6081
a(S'different'
p6082
F0.0013516732496108399
tp6083
a(S'mary'
p6084
F0.0013461336051452217
tp6085
a(S'still'
p6086
F0.0013405939606796035
tp6087
a(S'evidence'
p6088
F0.0013350543162139853
tp6089
a(S'spirit'
p6090
F0.0013128957383515126
tp6091
a(S'another'
p6092
F0.0013073560938858945
tp6093
a(S'anyone'
p6094
F0.0013018164494202763
tp6095
a(S'over'
p6096
F0.0012907371604890397
tp6097
a(S'words'
p6098
F0.0012741182270921852
tp6099
a(S'book'
p6100
F0.0012574992936953307
tp6101
a(S'person'
p6102
F0.0012464200047640943
tp6103
a(S'homosexual'
p6104
F0.0012464200047640943
tp6105
a(S'holy'
p6106
F0.0012298010713672396
tp6107
a(S'take'
p6108
F0.0012298010713672396
tp6109
a(S'problem'
p6110
F0.0012242614269016214
tp6111
a(S'whether'
p6112
F0.0012187217824360032
tp6113
a(S'between'
p6114
F0.0012076424935047669
tp6115
a(S'someone'
p6116
F0.0012021028490391487
tp6117
a(S'son'
p6118
F0.001157785693314203
tp6119
a(S'death'
p6120
F0.001157785693314203
tp6121
a(S'again'
p6122
F0.001152246048848585
tp6123
a(S'though'
p6124
F0.0011467064043829667
tp6125
a(S'always'
p6126
F0.0011190081820548756
tp6127
a(S'answer'
p6128
F0.0011190081820548756
tp6129
a(S'father'
p6130
F0.0011190081820548756
tp6131
a(S'shall'
p6132
F0.0011134685375892575
tp6133
a(S'name'
p6134
F0.0011134685375892575
tp6135
a(S'years'
p6136
F0.0011079288931236393
tp6137
a(S'john'
p6138
F0.001096849604192403
tp6139
a(S'thing'
p6140
F0.001096849604192403
tp6141
a(S'work'
p6142
F0.0010857703152611666
tp6143
a(S'used'
p6144
F0.0010857703152611666
tp6145
a(S'against'
p6146
F0.0010857703152611666
tp6147
a(S'body'
p6148
F0.0010857703152611666
tp6149
a(S'anything'
p6150
F0.0010802306707955484
tp6151
a(S'give'
p6152
F0.0010802306707955484
tp6153
a(S'marriage'
p6154
F0.0010580720929330755
tp6155
a(S'nothing'
p6156
F0.0010469928040018391
tp6157
a(S'clh'
p6158
F0.0010303738706049846
tp6159
a(S'given'
p6160
F0.0010303738706049846
tp6161
a(S'religion'
p6162
F0.0010248342261393664
tp6163
a(S'doctrine'
p6164
F0.0010248342261393664
tp6165
a(S'original'
p6166
F0.0010192945816737482
tp6167
a(S'course'
p6168
F0.0010026756482768935
tp6169
a(S'idea'
p6170
F0.0010026756482768935
tp6171
a(S'saying'
p6172
F0.0009971360038112753
tp6173
a(S'going'
p6174
F0.0009971360038112753
tp6175
a(S'belief'
p6176
F0.0009971360038112753
tp6177
a(S'quite'
p6178
F0.0009915963593456572
tp6179
a(S'tell'
p6180
F0.000986056714880039
tp6181
a(S'eternal'
p6182
F0.0009805170704144208
tp6183
a(S'nature'
p6184
F0.0009694377814831844
tp6185
a(S'far'
p6186
F0.000958358492551948
tp6187
a(S'understand'
p6188
F0.0009417395591550935
tp6189
a(S'feel'
p6190
F0.0009417395591550935
tp6191
a(S'meaning'
p6192
F0.0009417395591550935
tp6193
a(S'ask'
p6194
F0.0009361999146894752
tp6195
a(S'each'
p6196
F0.0009361999146894752
tp6197
a(S'etc'
p6198
F0.000930660270223857
tp6199
a(S'please'
p6200
F0.000930660270223857
tp6201
a(S'thought'
p6202
F0.000930660270223857
tp6203
a(S'discussion'
p6204
F0.0009195809812926206
tp6205
a(S'example'
p6206
F0.0009140413368270025
tp6207
a(S'accept'
p6208
F0.0009140413368270025
tp6209
a(S'mind'
p6210
F0.0009140413368270025
tp6211
a(S'great'
p6212
F0.0009085016923613843
tp6213
a(S'acts'
p6214
F0.0009085016923613843
tp6215
a(S'become'
p6216
F0.000902962047895766
tp6217
a(S'therefore'
p6218
F0.0008974224034301478
tp6219
a(S'trying'
p6220
F0.0008974224034301478
tp6221
a(S'himself'
p6222
F0.0008974224034301478
tp6223
a(S'last'
p6224
F0.0008918827589645297
tp6225
a(S'means'
p6226
F0.0008918827589645297
tp6227
a(S'view'
p6228
F0.0008918827589645297
tp6229
a(S'claim'
p6230
F0.0008863431144989115
tp6231
a(S'clear'
p6232
F0.000875263825567675
tp6233
a(S'argument'
p6234
F0.0008697241811020568
tp6235
a(S'sure'
p6236
F0.0008697241811020568
tp6237
a(S'found'
p6238
F0.0008697241811020568
tp6239
a(S'group'
p6240
F0.0008641845366364387
tp6241
a(S'free'
p6242
F0.0008586448921708205
tp6243
a(S'men'
p6244
F0.0008531052477052023
tp6245
a(S'authority'
p6246
F0.0008531052477052023
tp6247
a(S'certainly'
p6248
F0.0008364863143083477
tp6249
a(S'real'
p6250
F0.0008364863143083477
tp6251
a(S'sense'
p6252
F0.0008364863143083477
tp6253
a(S'best'
p6254
F0.0008309466698427295
tp6255
a(S'agree'
p6256
F0.0008309466698427295
tp6257
a(S'grace'
p6258
F0.0008309466698427295
tp6259
a(S'issue'
p6260
F0.0008309466698427295
tp6261
a(S'certain'
p6262
F0.0008254070253771113
tp6263
a(S'simply'
p6264
F0.0008254070253771113
tp6265
a(S'called'
p6266
F0.0008254070253771113
tp6267
a(S'thus'
p6268
F0.0008254070253771113
tp6269
a(S'note'
p6270
F0.000819867380911493
tp6271
a(S'look'
p6272
F0.000819867380911493
tp6273
a(S'done'
p6274
F0.000819867380911493
tp6275
a(S'live'
p6276
F0.0008143277364458749
tp6277
a(S'books'
p6278
F0.0008087880919802567
tp6279
a(S'enough'
p6280
F0.0008087880919802567
tp6281
a(S'children'
p6282
F0.0008032484475146385
tp6283
a(S'case'
p6284
F0.0008032484475146385
tp6285
a(S'having'
p6286
F0.0007977088030490203
tp6287
a(S'probably'
p6288
F0.0007977088030490203
tp6289
a(S'resurrection'
p6290
F0.0007977088030490203
tp6291
a(S'exist'
p6292
F0.0007921691585834021
tp6293
a(S'die'
p6294
F0.0007921691585834021
tp6295
a(S'perhaps'
p6296
F0.0007866295141177839
tp6297
a(S'st'
p6298
F0.0007755502251865475
tp6299
a(S'churches'
p6300
F0.0007755502251865475
tp6301
a(S'back'
p6302
F0.0007755502251865475
tp6303
a(S'few'
p6304
F0.0007755502251865475
tp6305
a(S'doing'
p6306
F0.0007700105807209294
tp6307
a(S'seem'
p6308
F0.0007700105807209294
tp6309
a(S'earth'
p6310
F0.0007700105807209294
tp6311
a(S'questions'
p6312
F0.0007700105807209294
tp6313
a(S'long'
p6314
F0.0007644709362553112
tp6315
a(S'place'
p6316
F0.0007644709362553112
tp6317
a(S'came'
p6318
F0.0007589312917896929
tp6319
a(S'beliefs'
p6320
F0.0007589312917896929
tp6321
a(S'matter'
p6322
F0.0007589312917896929
tp6323
a(S'little'
p6324
F0.0007589312917896929
tp6325
a(S'end'
p6326
F0.0007589312917896929
tp6327
a(S'possible'
p6328
F0.0007533916473240747
tp6329
a(S'sex'
p6330
F0.0007533916473240747
tp6331
a(S'better'
p6332
F0.0007533916473240747
tp6333
a(S'statement'
p6334
F0.0007533916473240747
tp6335
a(S'jewish'
p6336
F0.0007478520028584565
tp6337
a(S'existence'
p6338
F0.0007478520028584565
tp6339
a(S'religious'
p6340
F0.0007423123583928384
tp6341
aa(lp6342
(S'gun'
p6343
F0.00714272530961038
tp6344
a(S'people'
p6345
F0.006564416800477412
tp6346
a(g12
F0.005457017527669601
tp6347
a(S'guns'
p6348
F0.003568286545714057
tp6349
a(S'right'
p6350
F0.0033837200002460885
tp6351
a(S'think'
p6352
F0.003346806691152495
tp6353
a(S'government'
p6354
F0.0032914367275121044
tp6355
a(S'fbi'
p6356
F0.0031253268365909327
tp6357
a(S'fire'
p6358
F0.0030207391274924174
tp6359
a(S'time'
p6360
F0.002676214909285543
tp6361
a(S'well'
p6362
F0.002614692727462887
tp6363
a(S'weapons'
p6364
F0.002577779418369293
tp6365
a(S'know'
p6366
F0.002547018327457965
tp6367
a(S'believe'
p6368
F0.002528561672911168
tp6369
a(S'law'
p6370
F0.0025224094547289023
tp6371
a(S'those'
p6372
F0.00249780058199984
tp6373
a(S'use'
p6374
F0.0023624517819899964
tp6375
a(S'control'
p6376
F0.002319386254714137
tp6377
a(S'firearms'
p6378
F0.0022640162910737465
tp6379
a(S'waco'
p6380
F0.0021225152728816376
tp6381
a(S'distribution'
p6382
F0.002097906400152575
tp6383
a(S'way'
p6384
F0.002067145309241247
tp6385
a(S'make'
p6386
F0.002054840872876716
tp6387
a(S'batf'
p6388
F0.002054840872876716
tp6389
a(S'being'
p6390
F0.00204868865469445
tp6391
a(S'state'
p6392
F0.0020117753456008565
tp6393
a(S'atf'
p6394
F0.0019810142546895283
tp6395
a(S'good'
p6396
F0.0019502531637782003
tp6397
a(S'file'
p6398
F0.0018887309819555441
tp6399
a(S'children'
p6400
F0.0018887309819555441
tp6401
a(S'see'
p6402
F0.0018825787637732785
tp6403
a(S'over'
p6404
F0.0018395132364974192
tp6405
a(S'here'
p6406
F0.0017718388364924974
tp6407
a(S'rights'
p6408
F0.001728773309216638
tp6409
a(S'against'
p6410
F0.0017226210910343724
tp6411
a(S'used'
p6412
F0.00169801221830531
tp6413
a(S'crime'
p6414
F0.0016734033455762475
tp6415
a(S'bill'
p6416
F0.0016549466910294507
tp6417
a(S'koresh'
p6418
F0.001648794472847185
tp6419
a(S'police'
p6420
F0.001618033381935857
tp6421
a(S'first'
p6422
F0.0016118811637535913
tp6423
a(S'never'
p6424
F0.0015995767273890601
tp6425
a(S'point'
p6426
F0.001568815636477732
tp6427
a(S'before'
p6428
F0.0015626634182954663
tp6429
a(S'compound'
p6430
F0.001538054545566404
tp6431
a(S'amendment'
p6432
F0.0015195978910196072
tp6433
a(S'day'
p6434
F0.0015195978910196072
tp6435
a(S'things'
p6436
F0.0014642279273792166
tp6437
a(S'public'
p6438
F0.001458075709196951
tp6439
a(S'clinton'
p6440
F0.0014273146182856228
tp6441
a(S'arms'
p6442
F0.0014150101819210917
tp6443
a(S'without'
p6444
F0.001408857963738826
tp6445
a(S'militia'
p6446
F0.0014027057455565605
tp6447
a(S'world'
p6448
F0.0013965535273742949
tp6449
a(S'federal'
p6450
F0.0013842490910097635
tp6451
a(S'still'
p6452
F0.0013719446546452323
tp6453
a(S'usa'
p6454
F0.0013719446546452323
tp6455
a(S'really'
p6456
F0.001359640218280701
tp6457
a(S'keep'
p6458
F0.001359640218280701
tp6459
a(S'made'
p6460
F0.001359640218280701
tp6461
a(S'come'
p6462
F0.0013534880000984355
tp6463
a(S'take'
p6464
F0.0013411835637339043
tp6465
a(S'down'
p6466
F0.0013350313455516387
tp6467
a(S'go'
p6468
F0.0013288791273693731
tp6469
a(S'states'
p6470
F0.0013165746910048417
tp6471
a(S'gas'
p6472
F0.0013104224728225761
tp6473
a(S'second'
p6474
F0.0013042702546403105
tp6475
a(S'american'
p6476
F0.0013042702546403105
tp6477
a(S'house'
p6478
F0.0013042702546403105
tp6479
a(S'few'
p6480
F0.001298118036458045
tp6481
a(S'under'
p6482
F0.0012919658182757793
tp6483
a(S'little'
p6484
F0.0012735091637289826
tp6485
a(S'going'
p6486
F0.001267356945546717
tp6487
a(S'weapon'
p6488
F0.001267356945546717
tp6489
a(S'want'
p6490
F0.0012365958546353888
tp6491
a(S'thing'
p6492
F0.0012242914182708576
tp6493
a(S'enough'
p6494
F0.001218139200088592
tp6495
a(S'something'
p6496
F0.0012119869819063264
tp6497
a(S'back'
p6498
F0.0011935303273595294
tp6499
a(S'anyone'
p6500
F0.0011935303273595294
tp6501
a(S'today'
p6502
F0.0011750736728127326
tp6503
a(S'someone'
p6504
F0.001168921454630467
tp6505
a(S'national'
p6506
F0.0011566170182659358
tp6507
a(S'new'
p6508
F0.0011504648000836702
tp6509
a(S'laws'
p6510
F0.0011381603637191388
tp6511
a(S'same'
p6512
F0.0011381603637191388
tp6513
a(S'evidence'
p6514
F0.001119703709172342
tp6515
a(S'next'
p6516
F0.0011135514909900765
tp6517
a(S'actually'
p6518
F0.0011012470546255453
tp6519
a(S'sure'
p6520
F0.0011012470546255453
tp6521
a(S'country'
p6522
F0.0010827904000787485
tp6523
a(S'assault'
p6524
F0.0010766381818964827
tp6525
a(S'killed'
p6526
F0.0010643337455319515
tp6527
a(S'news'
p6528
F0.0010643337455319515
tp6529
a(S'year'
p6530
F0.0010581815273496859
tp6531
a(S'away'
p6532
F0.001039724872802889
tp6533
a(S'through'
p6534
F0.001039724872802889
tp6535
a(S'another'
p6536
F0.0010335726546206235
tp6537
a(S'firearm'
p6538
F0.0010335726546206235
tp6539
a(S'need'
p6540
F0.0010335726546206235
tp6541
a(S'texas'
p6542
F0.0010335726546206235
tp6543
a(S'david'
p6544
F0.001027420436438358
tp6545
a(S'handgun'
p6546
F0.0010212682182560923
tp6547
a(S'survivors'
p6548
F0.0010151160000738265
tp6549
a(S'post'
p6550
F0.0010151160000738265
tp6551
a(S'home'
p6552
F0.0010151160000738265
tp6553
a(S'course'
p6554
F0.001008963781891561
tp6555
a(S'last'
p6556
F0.0010028115637092953
tp6557
a(S'problem'
p6558
F0.0010028115637092953
tp6559
a(S'case'
p6560
F0.0010028115637092953
tp6561
a(S'person'
p6562
F0.0009966593455270297
tp6563
a(S'far'
p6564
F0.0009966593455270297
tp6565
a(S'question'
p6566
F0.0009843549091624985
tp6567
a(S'wrong'
p6568
F0.000978202690980233
tp6569
a(S'safety'
p6570
F0.000978202690980233
tp6571
a(S'themselves'
p6572
F0.0009720504727979674
tp6573
a(S'number'
p6574
F0.0009658982546157017
tp6575
a(S'started'
p6576
F0.0009658982546157017
tp6577
a(S'deaths'
p6578
F0.0009658982546157017
tp6579
a(S'anything'
p6580
F0.0009597460364334361
tp6581
a(S'find'
p6582
F0.0009597460364334361
tp6583
a(S'better'
p6584
F0.0009535938182511705
tp6585
a(S'members'
p6586
F0.0009535938182511705
tp6587
a(S'death'
p6588
F0.0009351371637043736
tp6589
a(S'means'
p6590
F0.000928984945522108
tp6591
a(S'carry'
p6592
F0.000928984945522108
tp6593
a(S'free'
p6594
F0.0009228327273398424
tp6595
a(S'ranch'
p6596
F0.0009166805091575768
tp6597
a(S'constitution'
p6598
F0.0009105282909753112
tp6599
a(S'criminals'
p6600
F0.0009043760727930455
tp6601
a(S'look'
p6602
F0.0008982238546107799
tp6603
a(S'tell'
p6604
F0.0008920716364285143
tp6605
a(S'maybe'
p6606
F0.0008920716364285143
tp6607
a(S'fact'
p6608
F0.0008736149818817174
tp6609
a(S'heard'
p6610
F0.0008736149818817174
tp6611
a(S'probably'
p6612
F0.0008736149818817174
tp6613
a(S'armed'
p6614
F0.0008736149818817174
tp6615
a(S'kill'
p6616
F0.0008736149818817174
tp6617
a(S'around'
p6618
F0.0008674627636994518
tp6619
a(S'bear'
p6620
F0.0008674627636994518
tp6621
a(S'power'
p6622
F0.0008613105455171862
tp6623
a(S'tanks'
p6624
F0.0008613105455171862
tp6625
a(S'cult'
p6626
F0.0008551583273349206
tp6627
a(S'years'
p6628
F0.0008551583273349206
tp6629
a(S'group'
p6630
F0.0008551583273349206
tp6631
a(S'long'
p6632
F0.0008551583273349206
tp6633
a(S'shot'
p6634
F0.000849006109152655
tp6635
a(S'again'
p6636
F0.000849006109152655
tp6637
a(S'part'
p6638
F0.0008428538909703893
tp6639
a(S'read'
p6640
F0.0008367016727881237
tp6641
a(S'both'
p6642
F0.0008367016727881237
tp6643
a(S'please'
p6644
F0.0008367016727881237
tp6645
a(S'support'
p6646
F0.0008243972364235926
tp6647
a(S'press'
p6648
F0.000818245018241327
tp6649
a(S'possible'
p6650
F0.0008120928000590613
tp6651
a(S'agents'
p6652
F0.0008120928000590613
tp6653
a(S'yes'
p6654
F0.0008120928000590613
tp6655
a(S'burns'
p6656
F0.0008120928000590613
tp6657
a(S'remember'
p6658
F0.0008059405818767957
tp6659
a(S'between'
p6660
F0.0008059405818767957
tp6661
a(S'days'
p6662
F0.0008059405818767957
tp6663
a(S'found'
p6664
F0.0007997883636945301
tp6665
a(S'write'
p6666
F0.0007997883636945301
tp6667
a(S'mr'
p6668
F0.0007874839273299989
tp6669
a(S'seems'
p6670
F0.0007874839273299989
tp6671
a(S'give'
p6672
F0.0007813317091477332
tp6673
a(S'military'
p6674
F0.0007751794909654676
tp6675
a(S'several'
p6676
F0.0007751794909654676
tp6677
a(S'place'
p6678
F0.0007751794909654676
tp6679
a(S'shall'
p6680
F0.000769027272783202
tp6681
a(S'media'
p6682
F0.000769027272783202
tp6683
a(S'once'
p6684
F0.000769027272783202
tp6685
a(S'dividian'
p6686
F0.0007628750546009364
tp6687
a(S'different'
p6688
F0.0007628750546009364
tp6689
a(S'information'
p6690
F0.0007567228364186708
tp6691
a(S'handguns'
p6692
F0.0007505706182364051
tp6693
a(S'opinions'
p6694
F0.0007505706182364051
tp6695
a(S'set'
p6696
F0.0007505706182364051
tp6697
a(S'happened'
p6698
F0.0007505706182364051
tp6699
a(S'makes'
p6700
F0.0007444184000541395
tp6701
a(S'put'
p6702
F0.0007444184000541395
tp6703
a(S'everyone'
p6704
F0.0007444184000541395
tp6705
a(S'life'
p6706
F0.0007382661818718739
tp6707
a(S'criminal'
p6708
F0.0007382661818718739
tp6709
a(S'nothing'
p6710
F0.0007382661818718739
tp6711
a(S'citizens'
p6712
F0.0007321139636896083
tp6713
a(S'speak'
p6714
F0.0007321139636896083
tp6715
a(S'lot'
p6716
F0.0007321139636896083
tp6717
a(S'always'
p6718
F0.0007259617455073427
tp6719
a(S'using'
p6720
F0.0007259617455073427
tp6721
a(S'reason'
p6722
F0.000719809527325077
tp6723
a(S'nra'
p6724
F0.0007136573091428114
tp6725
a(S'seen'
p6726
F0.0007136573091428114
tp6727
a(S'general'
p6728
F0.0007075050909605458
tp6729
a(S'special'
p6730
F0.0007075050909605458
tp6731
a(S'davidians'
p6732
F0.0007075050909605458
tp6733
a(S'rate'
p6734
F0.0007075050909605458
tp6735
a(S'united'
p6736
F0.0007075050909605458
tp6737
a(S'having'
p6738
F0.0006952006545960146
tp6739
a(S'article'
p6740
F0.0006952006545960146
tp6741
aa(lp6742
(g12
F0.010235006909625288
tp6743
a(S'people'
p6744
F0.006192776554267441
tp6745
a(S'israel'
p6746
F0.005033871102632826
tp6747
a(S'armenian'
p6748
F0.004536059482514864
tp6749
a(S'turkish'
p6750
F0.004432514665530329
tp6751
a(S'armenians'
p6752
F0.003990457946865579
tp6753
a(S'jews'
p6754
F0.003679823495911971
tp6755
a(S'israeli'
p6756
F0.0034368914252944057
tp6757
a(S'know'
p6758
F0.0027439376500902036
tp6759
a(S'world'
p6760
F0.002604550396457174
tp6761
a(S'armenia'
p6762
F0.0025607429738867937
tp6763
a(S'those'
p6764
F0.002504988072433582
tp6765
a(S'jewish'
p6766
F0.002465163142824145
tp6767
a(S'government'
p6768
F0.002425338213214708
tp6769
a(S'first'
p6770
F0.0022501085229331857
tp6771
a(S'arab'
p6772
F0.0022421435370112985
tp6773
a(S'right'
p6774
F0.002234178551089411
tp6775
a(S'war'
p6776
F0.002118686255222044
tp6777
a(S'against'
p6778
F0.002078861325612607
tp6779
a(S'turks'
p6780
F0.0020708963396907196
tp6781
a(S'time'
p6782
F0.0020350539030422263
tp6783
a(S'over'
p6784
F0.0020231064241593953
tp6785
a(S'think'
p6786
F0.001991246480471846
tp6787
a(S'well'
p6788
F0.001951421550862409
tp6789
a(S'see'
p6790
F0.0019434565649405215
tp6791
a(S'state'
p6792
F0.0018916841564482535
tp6793
a(S'genocide'
p6794
F0.0018797366775654223
tp6795
a(S'muslim'
p6796
F0.0018399117479559854
tp6797
a(S'years'
p6798
F0.0018120342972293797
tp6799
a(S'turkey'
p6800
F0.0018040693113074923
tp6801
a(S'way'
p6802
F0.001796104325385605
tp6803
a(S'killed'
p6804
F0.0017602618887371116
tp6805
a(S'go'
p6806
F0.0016925595084010688
tp6807
a(S'muslims'
p6808
F0.0016487520858306883
tp6809
a(S'new'
p6810
F0.0016487520858306883
tp6811
a(S'being'
p6812
F0.0016248571280650262
tp6813
a(S'rights'
p6814
F0.0016168921421431388
tp6815
a(S'here'
p6816
F0.0015332597899633212
tp6817
a(S'fact'
p6818
F0.0015093648321976591
tp6819
a(S'same'
p6820
F0.0015093648321976591
tp6821
a(S'arabs'
p6822
F0.0014814873814710532
tp6823
a(S'human'
p6824
F0.0014814873814710532
tp6825
a(S'history'
p6826
F0.0014695399025882222
tp6827
a(S'during'
p6828
F0.0014655574096272784
tp6829
a(S'soldiers'
p6830
F0.001457592423705391
tp6831
a(S'peace'
p6832
F0.00144564494482256
tp6833
a(S'children'
p6834
F0.0014098025081740668
tp6835
a(S'under'
p6836
F0.0013779425644865173
tp6837
a(S'before'
p6838
F0.001365995085603686
tp6839
a(S'between'
p6840
F0.0013580300996817987
tp6841
a(S'want'
p6842
F0.0013540476067208551
tp6843
a(S'never'
p6844
F0.001330152648955193
tp6845
a(S'down'
p6846
F0.001330152648955193
tp6847
a(S'going'
p6848
F0.0013261701559942492
tp6849
a(S'today'
p6850
F0.0013261701559942492
tp6851
a(S'make'
p6852
F0.001302275198228587
tp6853
a(S'work'
p6854
F0.0012982927052676435
tp6855
a(S'russian'
p6856
F0.001278380240462925
tp6857
a(S'azerbaijan'
p6858
F0.001278380240462925
tp6859
a(S'greek'
p6860
F0.001266432761580094
tp6861
a(S'population'
p6862
F0.0012624502686191502
tp6863
a(S'last'
p6864
F0.0012584677756582066
tp6865
a(S'went'
p6866
F0.0012544852826972628
tp6867
a(S'back'
p6868
F0.0012345728178925445
tp6869
a(S'still'
p6870
F0.0012345728178925445
tp6871
a(S'political'
p6872
F0.0011947478882831074
tp6873
a(S'land'
p6874
F0.00118678290236122
tp6875
a(S'part'
p6876
F0.0011708529305174452
tp6877
a(S'come'
p6878
F0.0011589054516346143
tp6879
a(S'both'
p6880
F0.0011549229586736705
tp6881
a(S'through'
p6882
F0.001123063014986121
tp6883
a(S'came'
p6884
F0.0011071330431423462
tp6885
a(S'told'
p6886
F0.0011031505501814026
tp6887
a(S'again'
p6888
F0.0010991680572204588
tp6889
a(S'take'
p6890
F0.0010951855642595152
tp6891
a(S'something'
p6892
F0.0010513781416891345
tp6893
a(S'left'
p6894
F0.001047395648728191
tp6895
a(S'started'
p6896
F0.0010434131557672472
tp6897
a(S'another'
p6898
F0.0010394306628063036
tp6899
a(S'soviet'
p6900
F0.0010354481698453598
tp6901
a(S'villages'
p6902
F0.0010314656768844162
tp6903
a(S'three'
p6904
F0.001019518198001585
tp6905
a(S'palestinian'
p6906
F0.0009996057331968665
tp6907
a(S'group'
p6908
F0.000995623240235923
tp6909
a(S'made'
p6910
F0.000995623240235923
tp6911
a(S'country'
p6912
F0.0009796932683921481
tp6913
a(S'home'
p6914
F0.0009757107754312045
tp6915
a(g636
F0.0009717282824702608
tp6916
a(S'states'
p6917
F0.0009677457895093171
tp6918
a(S'case'
p6919
F0.0009637632965483734
tp6920
a(S'nothing'
p6921
F0.000955798310626486
tp6922
a(S'believe'
p6923
F0.0009478333247045986
tp6924
a(S'women'
p6925
F0.0009438508317436549
tp6926
a(S'party'
p6927
F0.0009398683387827111
tp6928
a(S'million'
p6929
F0.0009358858458217675
tp6930
a(S'palestinians'
p6931
F0.0009239383669389364
tp6932
a(S'troops'
p6933
F0.0009239383669389364
tp6934
a(S'took'
p6935
F0.0009199558739779927
tp6936
a(S'called'
p6937
F0.0009080083950951616
tp6938
a(S'times'
p6939
F0.0009000434091732743
tp6940
a(S'question'
p6941
F0.0009000434091732743
tp6942
a(S'saw'
p6943
F0.0008920784232513869
tp6944
a(S'international'
p6945
F0.0008920784232513869
tp6946
a(S'adl'
p6947
F0.0008920784232513869
tp6948
a(S'away'
p6949
F0.0008880959302904432
tp6950
a(S'law'
p6951
F0.0008841134373294995
tp6952
a(S'dead'
p6953
F0.0008841134373294995
tp6954
a(S'army'
p6955
F0.0008841134373294995
tp6956
a(S'israelis'
p6957
F0.0008801309443685558
tp6958
a(S'really'
p6959
F0.0008761484514076121
tp6960
a(S'religious'
p6961
F0.0008721659584466684
tp6962
a(S'long'
p6963
F0.0008681834654857247
tp6964
a(S'ed'
p6965
F0.0008562359866028937
tp6966
a(S'without'
p6967
F0.0008562359866028937
tp6968
a(S'number'
p6969
F0.0008562359866028937
tp6970
a(S'press'
p6971
F0.0008562359866028937
tp6972
a(S'military'
p6973
F0.0008482710006810063
tp6974
a(S'give'
p6975
F0.0008442885077200626
tp6976
a(S'point'
p6977
F0.0008403060147591189
tp6978
a(S'sure'
p6979
F0.0008363235217981752
tp6980
a(S'true'
p6981
F0.0008363235217981752
tp6982
a(S'distribution'
p6983
F0.0008363235217981752
tp6984
a(S'american'
p6985
F0.0008323410288372315
tp6986
a(S'things'
p6987
F0.0008283585358762879
tp6988
a(S'men'
p6989
F0.0008243760429153442
tp6990
a(S'policy'
p6991
F0.0008203935499544005
tp6992
a(S'ottoman'
p6993
F0.0008203935499544005
tp6994
a(S'around'
p6995
F0.0008124285640325131
tp6996
a(S'holocaust'
p6997
F0.0008084460710715694
tp6998
a(S'opinions'
p6999
F0.0008044635781106257
tp7000
a(S'anything'
p7001
F0.0008044635781106257
tp7002
a(S'read'
p7003
F0.0008044635781106257
tp7004
a(S'tell'
p7005
F0.0008044635781106257
tp7006
a(S'istanbul'
p7007
F0.0008044635781106257
tp7008
a(S'york'
p7009
F0.0008044635781106257
tp7010
a(S'put'
p7011
F0.000800481085149682
tp7012
a(S'xsoviet'
p7013
F0.000800481085149682
tp7014
a(S'information'
p7015
F0.000800481085149682
tp7016
a(S'whole'
p7017
F0.0007964985921887383
tp7018
a(S'find'
p7019
F0.0007964985921887383
tp7020
a(S'greece'
p7021
F0.0007964985921887383
tp7022
a(S'serdar'
p7023
F0.0007925160992277947
tp7024
a(S'mr'
p7025
F0.0007925160992277947
tp7026
a(S'city'
p7027
F0.0007845511133059073
tp7028
a(S'europe'
p7029
F0.0007805686203449636
tp7030
a(S'kill'
p7031
F0.0007765861273840199
tp7032
a(S'good'
p7033
F0.0007726036344230762
tp7034
a(S'gaza'
p7035
F0.0007686211414621324
tp7036
a(S'help'
p7037
F0.0007646386485011887
tp7038
a(S'themselves'
p7039
F0.0007646386485011887
tp7040
a(S'palestine'
p7041
F0.0007646386485011887
tp7042
a(S'place'
p7043
F0.0007646386485011887
tp7044
a(S'religion'
p7045
F0.000760656155540245
tp7046
a(S'live'
p7047
F0.000760656155540245
tp7048
a(S'police'
p7049
F0.000760656155540245
tp7050
a(S'course'
p7051
F0.0007566736625793013
tp7052
a(S'single'
p7053
F0.0007526911696183577
tp7054
a(S'longer'
p7055
F0.0007526911696183577
tp7056
a(S'civilians'
p7057
F0.000748708676657414
tp7058
a(S'others'
p7059
F0.0007447261836964703
tp7060
a(S'members'
p7061
F0.0007407436907355266
tp7062
a(S'name'
p7063
F0.0007407436907355266
tp7064
a(S'closed'
p7065
F0.0007407436907355266
tp7066
a(S'year'
p7067
F0.0007287962118526955
tp7068
a(S'village'
p7069
F0.0007287962118526955
tp7070
a(S'old'
p7071
F0.0007248137188917518
tp7072
a(S'argic'
p7073
F0.0007248137188917518
tp7074
a(S'used'
p7075
F0.0007248137188917518
tp7076
a(S'later'
p7077
F0.0007248137188917518
tp7078
a(S'day'
p7079
F0.0007248137188917518
tp7080
a(S'support'
p7081
F0.0007208312259308081
tp7082
a(S'th'
p7083
F0.0007168487329698645
tp7084
a(S'escape'
p7085
F0.0007168487329698645
tp7086
a(S'problem'
p7087
F0.0007128662400089208
tp7088
a(S'look'
p7089
F0.0007128662400089208
tp7090
a(S'someone'
p7091
F0.0007088837470479771
tp7092
a(S'mountain'
p7093
F0.0007088837470479771
tp7094
a(S'serve'
p7095
F0.0007088837470479771
tp7096
a(S'everything'
p7097
F0.0007088837470479771
tp7098
a(S'few'
p7099
F0.0007088837470479771
tp7100
a(S'found'
p7101
F0.0007049012540870334
tp7102
a(S'heard'
p7103
F0.0007049012540870334
tp7104
a(S'president'
p7105
F0.0007009187611260897
tp7106
a(S'public'
p7107
F0.000696936268165146
tp7108
a(S'happened'
p7109
F0.000696936268165146
tp7110
a(S'source'
p7111
F0.0006889712822432586
tp7112
a(S'side'
p7113
F0.0006889712822432586
tp7114
a(S'azerbaijani'
p7115
F0.0006889712822432586
tp7116
a(S'lebanese'
p7117
F0.0006889712822432586
tp7118
a(S'united'
p7119
F0.0006889712822432586
tp7120
a(S'need'
p7121
F0.0006849887892823149
tp7122
a(S'occupied'
p7123
F0.0006810062963213713
tp7124
a(S'according'
p7125
F0.0006810062963213713
tp7126
a(S'ways'
p7127
F0.0006770238033604276
tp7128
a(S'freedom'
p7129
F0.0006730413103994839
tp7130
a(S'lebanon'
p7131
F0.0006690588174385402
tp7132
a(S'power'
p7133
F0.0006690588174385402
tp7134
a(S'countries'
p7135
F0.0006690588174385402
tp7136
a(S'person'
p7137
F0.0006650763244775965
tp7138
a(S'far'
p7139
F0.0006650763244775965
tp7140
aa(lp7141
(S'people'
p7142
F0.0069695508957981845
tp7143
a(g12
F0.006020527034626817
tp7144
a(g781
F0.004699927693420101
tp7145
a(S'think'
p7146
F0.004574395436651402
tp7147
a(S'government'
p7148
F0.003876436089017434
tp7149
a(S'president'
p7150
F0.0037709889933317266
tp7151
a(S'know'
p7152
F0.0035450309311480677
tp7153
a(S'mr'
p7154
F0.0033994135132963768
tp7155
a(S'those'
p7156
F0.002766730939182132
tp7157
a(S'make'
p7158
F0.0026914115851209125
tp7159
a(S'going'
p7160
F0.002651241262954929
tp7161
a(S'new'
p7162
F0.002641198682413433
tp7163
a(S'right'
p7164
F0.0025156664256447336
tp7165
a(S'time'
p7166
F0.002390134168876034
tp7167
a(S'well'
p7168
F0.0023750702980637906
tp7169
a(S'stephanopoulos'
p7170
F0.002284687073190327
tp7171
a(S'want'
p7172
F0.002244516751024343
tp7173
a(S'being'
p7174
F0.0021842612677753677
tp7175
a(S'health'
p7176
F0.0021039206234434
tp7177
a(S'way'
p7178
F0.0020637503012774163
tp7179
a(S'believe'
p7180
F0.0020286012693821803
tp7181
a(S'go'
p7182
F0.001953281915320961
tp7183
a(S'here'
p7184
F0.001933196754237969
tp7185
a(S'see'
p7186
F0.0018930264320719853
tp7187
a(S'state'
p7188
F0.0018779625612597413
tp7189
a(S'first'
p7190
F0.0018026432071985218
tp7191
a(S'good'
p7192
F0.0017825580461155299
tp7193
a(S'over'
p7194
F0.0017373664336787981
tp7195
a(S'made'
p7196
F0.0017022174017835624
tp7197
a(S'law'
p7198
F0.0016319193379930907
tp7199
a(S'take'
p7200
F0.0016218767574515947
tp7201
a(S'insurance'
p7202
F0.001611834176910099
tp7203
a(S'something'
p7204
F0.001606812886639351
tp7205
a(S'states'
p7206
F0.001576685145014863
tp7207
a(S'american'
p7208
F0.0015365148228488792
tp7209
a(S'myers'
p7210
F0.0015314935325781312
tp7211
a(S'private'
p7212
F0.0015264722423073832
tp7213
a(S'really'
p7214
F0.0015164296617658874
tp7215
a(S'ms'
p7216
F0.0015164296617658874
tp7217
a(S'money'
p7218
F0.0014561741785169117
tp7219
a(S'use'
p7220
F0.0014511528882461637
tp7221
a(S'men'
p7222
F0.0014461315979754157
tp7223
a(S'rights'
p7224
F0.0014461315979754157
tp7225
a(S'care'
p7226
F0.0014411103077046677
tp7227
a(S'same'
p7228
F0.0014411103077046677
tp7229
a(S'children'
p7230
F0.0014360890174339197
tp7231
a(S'gay'
p7232
F0.001426046436892424
tp7233
a(S'world'
p7234
F0.001390897404997188
tp7235
a(S'against'
p7236
F0.00138587611472644
tp7237
a(S'between'
p7238
F0.0013708122439141962
tp7239
a(S'point'
p7240
F0.0013708122439141962
tp7241
a(S'back'
p7242
F0.0013657909536434483
tp7243
a(S'last'
p7244
F0.0013557483731019523
tp7245
a(S'pay'
p7246
F0.0013457057925604563
tp7247
a(S'still'
p7248
F0.0013256206314774645
tp7249
a(S'clinton'
p7250
F0.0013155780509359685
tp7251
a(S'fact'
p7252
F0.0013155780509359685
tp7253
a(S'sure'
p7254
F0.0013155780509359685
tp7255
a(S'through'
p7256
F0.0013005141801237245
tp7257
a(S'work'
p7258
F0.0012904715995822286
tp7259
a(S'question'
p7260
F0.0012904715995822286
tp7261
a(S'before'
p7262
F0.0012804290190407328
tp7263
a(S'tax'
p7264
F0.0012804290190407328
tp7265
a(S'again'
p7266
F0.0012503012774162448
tp7267
a(S'political'
p7268
F0.0012503012774162448
tp7269
a(S'case'
p7270
F0.0012452799871454968
tp7271
a(S'drugs'
p7272
F0.001235237406604001
tp7273
a(S'come'
p7274
F0.001235237406604001
tp7275
a(S'part'
p7276
F0.001230216116333253
tp7277
a(S'fbi'
p7278
F0.001225194826062505
tp7279
a(S'years'
p7280
F0.001215152245521009
tp7281
a(S'system'
p7282
F0.001215152245521009
tp7283
a(S'general'
p7284
F0.001215152245521009
tp7285
a(S'anything'
p7286
F0.001210130955250261
tp7287
a(S'abortion'
p7288
F0.001205109664979513
tp7289
a(S'country'
p7290
F0.001200088374708765
tp7291
a(S'things'
p7292
F0.001200088374708765
tp7293
a(S'number'
p7294
F0.0011800032136257733
tp7295
a(S'national'
p7296
F0.0011749819233550253
tp7297
a(S'down'
p7298
F0.0011749819233550253
tp7299
a(S'house'
p7300
F0.0011599180525427813
tp7301
a(S'support'
p7302
F0.0011498754720012854
tp7303
a(S'war'
p7304
F0.0011498754720012854
tp7305
a(S'public'
p7306
F0.0011498754720012854
tp7307
a(S'day'
p7308
F0.0011398328914597896
tp7309
a(S'opinions'
p7310
F0.0011247690206475456
tp7311
a(S'need'
p7312
F0.0011247690206475456
tp7313
a(S'jobs'
p7314
F0.0011097051498353016
tp7315
a(S'fire'
p7316
F0.0011097051498353016
tp7317
a(S'look'
p7318
F0.0010996625692938058
tp7319
a(S'mean'
p7320
F0.0010946412790230578
tp7321
a(S'yes'
p7322
F0.0010795774082108139
tp7323
a(S'federal'
p7324
F0.0010695348276693179
tp7325
a(S'never'
p7326
F0.0010544709568570739
tp7327
a(S'without'
p7328
F0.0010544709568570739
tp7329
a(S'free'
p7330
F0.0010444283763155781
tp7331
a(S'white'
p7332
F0.0010394070860448301
tp7333
a(S'both'
p7334
F0.0010343857957740821
tp7335
a(S'laws'
p7336
F0.0010193219249618381
tp7337
a(S'used'
p7338
F0.0010143006346910901
tp7339
a(S'power'
p7340
F0.0010092793444203422
tp7341
a(S'next'
p7342
F0.0010042580541495944
tp7343
a(S'united'
p7344
F0.0010042580541495944
tp7345
a(S'put'
p7346
F0.0009992367638788464
tp7347
a(S'few'
p7348
F0.0009992367638788464
tp7349
a(S'study'
p7350
F0.0009942154736080984
tp7351
a(S'thing'
p7352
F0.0009942154736080984
tp7353
a(S'someone'
p7354
F0.0009942154736080984
tp7355
a(S'kind'
p7356
F0.0009942154736080984
tp7357
a(S'themselves'
p7358
F0.0009791516027958544
tp7359
a(S'batf'
p7360
F0.0009791516027958544
tp7361
a(S'lot'
p7362
F0.0009741303125251064
tp7363
a(S'distribution'
p7364
F0.0009691090222543585
tp7365
a(S'another'
p7366
F0.0009691090222543585
tp7367
a(S'sexual'
p7368
F0.0009691090222543585
tp7369
a(S'under'
p7370
F0.0009691090222543585
tp7371
a(S'drug'
p7372
F0.0009640877319836105
tp7373
a(S'today'
p7374
F0.0009590664417128625
tp7375
a(S'tell'
p7376
F0.0009490238611713665
tp7377
a(S'police'
p7378
F0.0009440025709006187
tp7379
a(S'koresh'
p7380
F0.0009389812806298707
tp7381
a(S'give'
p7382
F0.0009389812806298707
tp7383
a(S'problem'
p7384
F0.0009339599903591227
tp7385
a(S'bill'
p7386
F0.0009188961195468788
tp7387
a(S'nothing'
p7388
F0.0009188961195468788
tp7389
a(S'whether'
p7390
F0.0009188961195468788
tp7391
a(S'homosexual'
p7392
F0.0009088535390053828
tp7393
a(S'year'
p7394
F0.0009088535390053828
tp7395
a(S'anyone'
p7396
F0.0009088535390053828
tp7397
a(S'done'
p7398
F0.0008988109584638869
tp7399
a(S'try'
p7400
F0.0008937896681931389
tp7401
a(S'enough'
p7402
F0.0008937896681931389
tp7403
a(S'usa'
p7404
F0.0008937896681931389
tp7405
a(S'evidence'
p7406
F0.0008837470876516429
tp7407
a(S'force'
p7408
F0.0008837470876516429
tp7409
a(S'place'
p7410
F0.0008787257973808949
tp7411
a(S'working'
p7412
F0.0008737045071101471
tp7413
a(S'person'
p7414
F0.0008737045071101471
tp7415
a(S'actually'
p7416
F0.0008737045071101471
tp7417
a(S'having'
p7418
F0.0008686832168393991
tp7419
a(S'human'
p7420
F0.0008686832168393991
tp7421
a(S'far'
p7422
F0.0008686832168393991
tp7423
a(S'find'
p7424
F0.0008636619265686511
tp7425
a(S'press'
p7426
F0.0008636619265686511
tp7427
a(S'already'
p7428
F0.0008586406362979031
tp7429
a(S'news'
p7430
F0.0008485980557564072
tp7431
a(S'different'
p7432
F0.0008435767654856592
tp7433
a(S'program'
p7434
F0.0008435767654856592
tp7435
a(S'group'
p7436
F0.0008385554752149112
tp7437
a(S'little'
p7438
F0.0008385554752149112
tp7439
a(S'life'
p7440
F0.0008335341849441632
tp7441
a(S'situation'
p7442
F0.0008285128946734153
tp7443
a(S'package'
p7444
F0.0008234916044026673
tp7445
a(S'sex'
p7446
F0.0008184703141319193
tp7447
a(S'course'
p7448
F0.0008134490238611713
tp7449
a(S'long'
p7450
F0.0008134490238611713
tp7451
a(S'start'
p7452
F0.0007983851530489275
tp7453
a(S'reason'
p7454
F0.0007983851530489275
tp7455
a(S'waco'
p7456
F0.0007983851530489275
tp7457
a(S'congress'
p7458
F0.0007933638627781795
tp7459
a(S'others'
p7460
F0.0007933638627781795
tp7461
a(S'administration'
p7462
F0.0007933638627781795
tp7463
a(S'action'
p7464
F0.0007883425725074315
tp7465
a(S'using'
p7466
F0.0007883425725074315
tp7467
a(S'true'
p7468
F0.0007833212822366836
tp7469
a(S'order'
p7470
F0.0007732787016951876
tp7471
a(S'less'
p7472
F0.0007732787016951876
tp7473
a(S'information'
p7474
F0.0007682574114244396
tp7475
a(S'trying'
p7476
F0.0007632361211536916
tp7477
a(S'issue'
p7478
F0.0007531935406121957
tp7479
a(S'society'
p7480
F0.0007481722503414477
tp7481
a(S'control'
p7482
F0.0007481722503414477
tp7483
a(S'please'
p7484
F0.0007481722503414477
tp7485
a(S'better'
p7486
F0.0007431509600706997
tp7487
a(S'important'
p7488
F0.0007431509600706997
tp7489
a(S'crime'
p7490
F0.0007431509600706997
tp7491
a(S'party'
p7492
F0.0007381296697999517
tp7493
a(S'child'
p7494
F0.0007331083795292039
tp7495
a(S'set'
p7496
F0.0007331083795292039
tp7497
a(S'article'
p7498
F0.0007331083795292039
tp7499
a(S'homosexuals'
p7500
F0.0007331083795292039
tp7501
a(S'gun'
p7502
F0.0007280870892584559
tp7503
a(S'thought'
p7504
F0.0007280870892584559
tp7505
a(S'coverage'
p7506
F0.0007230657989877079
tp7507
a(S'wrong'
p7508
F0.0007180445087169599
tp7509
a(S'certainly'
p7510
F0.0007180445087169599
tp7511
a(S'means'
p7512
F0.000713023218446212
tp7513
a(S'business'
p7514
F0.000713023218446212
tp7515
a(S'seems'
p7516
F0.000713023218446212
tp7517
a(S'probably'
p7518
F0.000708001928175464
tp7519
a(S'show'
p7520
F0.000702980637904716
tp7521
a(S'april'
p7522
F0.000702980637904716
tp7523
a(S'clayton'
p7524
F0.000697959347633968
tp7525
a(S'keep'
p7526
F0.000697959347633968
tp7527
a(S'around'
p7528
F0.00069293805736322
tp7529
a(S'doing'
p7530
F0.00069293805736322
tp7531
a(S'decision'
p7532
F0.00069293805736322
tp7533
a(S'plan'
p7534
F0.0006879167670924721
tp7535
a(S'military'
p7536
F0.0006828954768217241
tp7537
a(S'though'
p7538
F0.0006778741865509761
tp7539
aa(lp7540
(S'god'
p7541
F0.00629427637940078
tp7542
a(S'people'
p7543
F0.005662320919621585
tp7544
a(S'jesus'
p7545
F0.004322575344889692
tp7546
a(g12
F0.004019236724195679
tp7547
a(S'know'
p7548
F0.003968680287413343
tp7549
a(S'think'
p7550
F0.0034883941379811553
tp7551
a(S'christian'
p7552
F0.0033240857184385643
tp7553
a(S'see'
p7554
F0.0029385928879732555
tp7555
a(S'good'
p7556
F0.0029385928879732555
tp7557
a(S'those'
p7558
F0.002666852040268202
tp7559
a(S'way'
p7560
F0.002654212931072618
tp7561
a(S'objective'
p7562
F0.002616295603485866
tp7563
a(S'morality'
p7564
F0.0025531000575079467
tp7565
a(S'bible'
p7566
F0.0024772654023344433
tp7567
a(S'believe'
p7568
F0.0023951111925631483
tp7569
a(S'being'
p7570
F0.002376152528769772
tp7571
a(S'time'
p7572
F0.002319276537389645
tp7573
a(S'make'
p7574
F0.0021992050000315976
tp7575
a(S'life'
p7576
F0.002167607227042638
tp7577
a(S'really'
p7578
F0.0021486485632492623
tp7579
a(S'right'
p7580
F0.0021360094540536782
tp7581
a(S'world'
p7582
F0.0021296898994558862
tp7583
a(S'well'
p7584
F0.0020917725718691345
tp7585
a(S'fact'
p7586
F0.002072813908075759
tp7587
a(S'point'
p7588
F0.0019906596983044634
tp7589
a(S'same'
p7590
F0.0019843401437066714
tp7591
a(S'years'
p7592
F0.0019590619253155037
tp7593
a(S'want'
p7594
F0.0019085054885331681
tp7595
a(S'science'
p7596
F0.0018579490517508326
tp7597
a(S'christ'
p7598
F0.0017568361781861615
tp7599
a(S'true'
p7600
F0.0017441970689905776
tp7601
a(S'moral'
p7602
F0.0017441970689905776
tp7603
a(S'first'
p7604
F0.0017315579597949936
tp7605
a(S'koresh'
p7606
F0.0016494037500236983
tp7607
a(S'things'
p7608
F0.0016304450862303225
tp7609
a(S'religion'
p7610
F0.0016114864224369466
tp7611
a(S'abortion'
p7612
F0.0015988473132413628
tp7613
a(S'still'
p7614
F0.0015925277586435708
tp7615
a(S'christians'
p7616
F0.001579888649447987
tp7617
a(S'jews'
p7618
F0.001560929985654611
tp7619
a(S'better'
p7620
F0.001554610431056819
tp7621
a(S'something'
p7622
F0.0015419713218612352
tp7623
a(S'truth'
p7624
F0.0015356517672634432
tp7625
a(S'word'
p7626
F0.0015356517672634432
tp7627
a(S'evidence'
p7628
F0.0015356517672634432
tp7629
a(S'theory'
p7630
F0.0015166931034700675
tp7631
a(S'here'
p7632
F0.0015103735488722755
tp7633
a(S'take'
p7634
F0.0015103735488722755
tp7635
a(S'law'
p7636
F0.0014850953304811076
tp7637
a(S'mean'
p7638
F0.0014787757758833158
tp7639
a(S'man'
p7640
F0.0014724562212855238
tp7641
a(S'come'
p7642
F0.0014661366666877318
tp7643
a(S'never'
p7644
F0.001447178002894356
tp7645
a(S'new'
p7646
F0.001440858448296564
tp7647
a(S'lord'
p7648
F0.001434538893698772
tp7649
a(S'mormons'
p7650
F0.0014218997845031882
tp7651
a(S'made'
p7652
F0.0014218997845031882
tp7653
a(S'read'
p7654
F0.0014155802299053962
tp7655
a(S'use'
p7656
F0.0014029411207098124
tp7657
a(S'nothing'
p7658
F0.0013903020115142285
tp7659
a(S'fbi'
p7660
F0.0013839824569164365
tp7661
a(S'question'
p7662
F0.0013839824569164365
tp7663
a(S'over'
p7664
F0.0013713433477208527
tp7665
a(S'before'
p7666
F0.0013523846839274768
tp7667
a(S'part'
p7668
F0.0013523846839274768
tp7669
a(S'thing'
p7670
F0.001333426020134101
tp7671
a(S'different'
p7672
F0.001333426020134101
tp7673
a(S'used'
p7674
F0.001314467356340725
tp7675
a(S'values'
p7676
F0.001308147801742933
tp7677
a(S'fire'
p7678
F0.001308147801742933
tp7679
a(S'value'
p7680
F0.001308147801742933
tp7681
a(S'children'
p7682
F0.0013018282471451413
tp7683
a(S'another'
p7684
F0.0012955086925473492
tp7685
a(S'find'
p7686
F0.0012828695833517654
tp7687
a(S'seems'
p7688
F0.0012639109195583895
tp7689
a(S'please'
p7690
F0.0012512718103628057
tp7691
a(S'jehovah'
p7692
F0.001207034928178262
tp7693
a(S'anything'
p7694
F0.0012007153735804701
tp7695
a(S'next'
p7696
F0.0012007153735804701
tp7697
a(S'saying'
p7698
F0.0011943958189826781
tp7699
a(S'wrong'
p7700
F0.0011627980459937184
tp7701
a(S'order'
p7702
F0.0011564784913959264
tp7703
a(S'someone'
p7704
F0.0011501589367981344
tp7705
a(S'day'
p7706
F0.0011501589367981344
tp7707
a(S'reason'
p7708
F0.0011375198276025505
tp7709
a(S'actually'
p7710
F0.0011248807184069667
tp7711
a(S'without'
p7712
F0.0011248807184069667
tp7713
a(S'go'
p7714
F0.0011185611638091747
tp7715
a(S'claim'
p7716
F0.0011059220546135908
tp7717
a(S'others'
p7718
F0.0011059220546135908
tp7719
a(S'pay'
p7720
F0.001086963390820215
tp7721
a(S'again'
p7722
F0.001086963390820215
tp7723
a(S'agree'
p7724
F0.001086963390820215
tp7725
a(S'example'
p7726
F0.001080643836222423
tp7727
a(S'person'
p7728
F0.001080643836222423
tp7729
a(S'above'
p7730
F0.001080643836222423
tp7731
a(S'real'
p7732
F0.001080643836222423
tp7733
a(S'look'
p7734
F0.001080643836222423
tp7735
a(S'religious'
p7736
F0.0010743242816246311
tp7737
a(S'means'
p7738
F0.001061685172429047
tp7739
a(S'case'
p7740
F0.001061685172429047
tp7741
a(S'matter'
p7742
F0.0010553656178312553
tp7743
a(S'both'
p7744
F0.0010427265086356715
tp7745
a(S'through'
p7746
F0.0010427265086356715
tp7747
a(S'back'
p7748
F0.0010364069540378794
tp7749
a(S'universe'
p7750
F0.0010237678448422956
tp7751
a(S'tell'
p7752
F0.0010111287356467115
tp7753
a(S'against'
p7754
F0.0010111287356467115
tp7755
a(S'course'
p7756
F0.0010048091810489197
tp7757
a(S'though'
p7758
F0.0010048091810489197
tp7759
a(S'great'
p7760
F0.0009984896264511277
tp7761
a(S'give'
p7762
F0.0009921700718533357
tp7763
a(S'faith'
p7764
F0.0009858505172555439
tp7765
a(S'christianity'
p7766
F0.0009858505172555439
tp7767
a(S'church'
p7768
F0.0009858505172555439
tp7769
a(S'going'
p7770
F0.0009732114080599599
tp7771
a(S'everyone'
p7772
F0.0009732114080599599
tp7773
a(S'government'
p7774
F0.0009542527442665841
tp7775
a(S'john'
p7776
F0.0009542527442665841
tp7777
a(S'mr'
p7778
F0.0009542527442665841
tp7779
a(S'shall'
p7780
F0.0009479331896687922
tp7781
a(S'david'
p7782
F0.0009352940804732082
tp7783
a(S'between'
p7784
F0.0009352940804732082
tp7785
a(S'himself'
p7786
F0.0009289745258754163
tp7787
a(S'far'
p7788
F0.0009289745258754163
tp7789
a(S'whether'
p7790
F0.0009289745258754163
tp7791
a(S'love'
p7792
F0.0009226549712776244
tp7793
a(S'distribution'
p7794
F0.0009226549712776244
tp7795
a(S'earth'
p7796
F0.0009226549712776244
tp7797
a(S'elohim'
p7798
F0.0009163354166798325
tp7799
a(S'yes'
p7800
F0.0009100158620820404
tp7801
a(S'perhaps'
p7802
F0.0009036963074842485
tp7803
a(S'etc'
p7804
F0.0008973767528864566
tp7805
a(S'themselves'
p7806
F0.0008847376436908727
tp7807
a(S'book'
p7808
F0.0008720985344952888
tp7809
a(S'sense'
p7810
F0.0008657789798974968
tp7811
a(S'father'
p7812
F0.0008594594252997049
tp7813
a(S'anyone'
p7814
F0.0008594594252997049
tp7815
a(S'place'
p7816
F0.0008594594252997049
tp7817
a(S'need'
p7818
F0.000853139870701913
tp7819
a(S'death'
p7820
F0.0008468203161041209
tp7821
a(S'long'
p7822
F0.000840500761506329
tp7823
a(S'private'
p7824
F0.000840500761506329
tp7825
a(S'context'
p7826
F0.000840500761506329
tp7827
a(S'accept'
p7828
F0.0008341812069085371
tp7829
a(S'light'
p7830
F0.0008341812069085371
tp7831
a(S'system'
p7832
F0.0008278616523107452
tp7833
a(S'put'
p7834
F0.0008278616523107452
tp7835
a(S'down'
p7836
F0.0008278616523107452
tp7837
a(S'under'
p7838
F0.0008278616523107452
tp7839
a(S'each'
p7840
F0.0008278616523107452
tp7841
a(S'sure'
p7842
F0.0008278616523107452
tp7843
a(S'set'
p7844
F0.0008215420977129532
tp7845
a(S'understand'
p7846
F0.0008215420977129532
tp7847
a(S'little'
p7848
F0.0008152225431151612
tp7849
a(S'few'
p7850
F0.0008089029885173693
tp7851
a(S'died'
p7852
F0.0008025834339195773
tp7853
a(S'words'
p7854
F0.0007962638793217854
tp7855
a(S'evolution'
p7856
F0.0007899443247239935
tp7857
a(S'possible'
p7858
F0.0007836247701262015
tp7859
a(S'answer'
p7860
F0.0007836247701262015
tp7861
a(S'happened'
p7862
F0.0007836247701262015
tp7863
a(S'quite'
p7864
F0.0007709856609306176
tp7865
a(S'follow'
p7866
F0.0007709856609306176
tp7867
a(S'health'
p7868
F0.0007709856609306176
tp7869
a(S'until'
p7870
F0.0007646661063328257
tp7871
a(S'ra'
p7872
F0.0007646661063328257
tp7873
a(S'biblical'
p7874
F0.0007583465517350338
tp7875
a(S'kind'
p7876
F0.0007583465517350338
tp7877
a(S'last'
p7878
F0.0007520269971372417
tp7879
a(S'live'
p7880
F0.0007520269971372417
tp7881
a(S'reality'
p7882
F0.0007457074425394498
tp7883
a(S'brian'
p7884
F0.0007457074425394498
tp7885
a(S'probably'
p7886
F0.0007393878879416579
tp7887
a(S'lot'
p7888
F0.0007330683333438659
tp7889
a(S'black'
p7890
F0.0007330683333438659
tp7891
a(S'opinion'
p7892
F0.000726748778746074
tp7893
a(S'started'
p7894
F0.000726748778746074
tp7895
a(S'coverage'
p7896
F0.000720429224148282
tp7897
a(S'seem'
p7898
F0.000720429224148282
tp7899
a(S'meaning'
p7900
F0.000720429224148282
tp7901
a(S'mormon'
p7902
F0.0007141096695504901
tp7903
a(S'consider'
p7904
F0.0007141096695504901
tp7905
a(S'explain'
p7906
F0.0007141096695504901
tp7907
a(S'called'
p7908
F0.0007141096695504901
tp7909
a(S'following'
p7910
F0.0007077901149526981
tp7911
a(S'try'
p7912
F0.0007077901149526981
tp7913
a(S'makes'
p7914
F0.0007077901149526981
tp7915
a(S'issue'
p7916
F0.0007077901149526981
tp7917
a(S'name'
p7918
F0.0007077901149526981
tp7919
a(S'found'
p7920
F0.0007014705603549062
tp7921
a(S'upon'
p7922
F0.0007014705603549062
tp7923
a(S'enough'
p7924
F0.0007014705603549062
tp7925
a(S'cult'
p7926
F0.0006951510057571143
tp7927
a(S'thought'
p7928
F0.0006888314511593222
tp7929
a(S'around'
p7930
F0.0006825118965615303
tp7931
a(S'society'
p7932
F0.0006825118965615303
tp7933
a(S'trying'
p7934
F0.0006825118965615303
tp7935
a(S'group'
p7936
F0.0006825118965615303
tp7937
a(S'myself'
p7938
F0.0006825118965615303
tp7939
aa.